
AVR_Template.elf:     file format elf32-avr

Sections:
Idx Name          Size      VMA       LMA       File off  Algn
  0 .data         000001b0  00800100  00002c80  00002d14  2**0
                  CONTENTS, ALLOC, LOAD, DATA
  1 .text         00002c80  00000000  00000000  00000094  2**1
                  CONTENTS, ALLOC, LOAD, READONLY, CODE
  2 .bss          00000198  008002b0  008002b0  00002ec4  2**0
                  ALLOC
  3 .comment      0000005c  00000000  00000000  00002ec4  2**0
                  CONTENTS, READONLY
  4 .note.gnu.avr.deviceinfo 00000040  00000000  00000000  00002f20  2**2
                  CONTENTS, READONLY
  5 .debug_aranges 00000518  00000000  00000000  00002f60  2**0
                  CONTENTS, READONLY, DEBUGGING
  6 .debug_info   0000a832  00000000  00000000  00003478  2**0
                  CONTENTS, READONLY, DEBUGGING
  7 .debug_abbrev 0000291e  00000000  00000000  0000dcaa  2**0
                  CONTENTS, READONLY, DEBUGGING
  8 .debug_line   0000932b  00000000  00000000  000105c8  2**0
                  CONTENTS, READONLY, DEBUGGING
  9 .debug_frame  00001604  00000000  00000000  000198f4  2**2
                  CONTENTS, READONLY, DEBUGGING
 10 .debug_str    00014ec8  00000000  00000000  0001aef8  2**0
                  CONTENTS, READONLY, DEBUGGING
 11 .debug_loc    00008334  00000000  00000000  0002fdc0  2**0
                  CONTENTS, READONLY, DEBUGGING
 12 .debug_ranges 000004f0  00000000  00000000  000380f4  2**0
                  CONTENTS, READONLY, DEBUGGING
 13 .debug_macro  0000699f  00000000  00000000  000385e4  2**0
                  CONTENTS, READONLY, DEBUGGING

Disassembly of section .text:

00000000 <__vectors>:
       0:	4a c0       	rjmp	.+148    	; 0x96 <__ctors_end>
       2:	00 00       	nop
       4:	65 c0       	rjmp	.+202    	; 0xd0 <__bad_interrupt>
       6:	00 00       	nop
       8:	63 c0       	rjmp	.+198    	; 0xd0 <__bad_interrupt>
       a:	00 00       	nop
       c:	61 c0       	rjmp	.+194    	; 0xd0 <__bad_interrupt>
       e:	00 00       	nop
      10:	5f c0       	rjmp	.+190    	; 0xd0 <__bad_interrupt>
      12:	00 00       	nop
      14:	5d c0       	rjmp	.+186    	; 0xd0 <__bad_interrupt>
      16:	00 00       	nop
      18:	5b c0       	rjmp	.+182    	; 0xd0 <__bad_interrupt>
      1a:	00 00       	nop
      1c:	59 c0       	rjmp	.+178    	; 0xd0 <__bad_interrupt>
      1e:	00 00       	nop
      20:	57 c0       	rjmp	.+174    	; 0xd0 <__bad_interrupt>
      22:	00 00       	nop
      24:	55 c0       	rjmp	.+170    	; 0xd0 <__bad_interrupt>
      26:	00 00       	nop
      28:	53 c0       	rjmp	.+166    	; 0xd0 <__bad_interrupt>
      2a:	00 00       	nop
      2c:	51 c0       	rjmp	.+162    	; 0xd0 <__bad_interrupt>
      2e:	00 00       	nop
      30:	4f c0       	rjmp	.+158    	; 0xd0 <__bad_interrupt>
      32:	00 00       	nop
      34:	0c 94 6f 0d 	jmp	0x1ade	; 0x1ade <__vector_13>
      38:	4b c0       	rjmp	.+150    	; 0xd0 <__bad_interrupt>
      3a:	00 00       	nop
      3c:	49 c0       	rjmp	.+146    	; 0xd0 <__bad_interrupt>
      3e:	00 00       	nop
      40:	0c 94 4a 0d 	jmp	0x1a94	; 0x1a94 <__vector_16>
      44:	45 c0       	rjmp	.+138    	; 0xd0 <__bad_interrupt>
      46:	00 00       	nop
      48:	0c 94 61 0e 	jmp	0x1cc2	; 0x1cc2 <__vector_18>
      4c:	0c 94 21 0e 	jmp	0x1c42	; 0x1c42 <__vector_19>
      50:	3f c0       	rjmp	.+126    	; 0xd0 <__bad_interrupt>
      52:	00 00       	nop
      54:	3d c0       	rjmp	.+122    	; 0xd0 <__bad_interrupt>
      56:	00 00       	nop
      58:	3b c0       	rjmp	.+118    	; 0xd0 <__bad_interrupt>
      5a:	00 00       	nop
      5c:	39 c0       	rjmp	.+114    	; 0xd0 <__bad_interrupt>
      5e:	00 00       	nop
      60:	37 c0       	rjmp	.+110    	; 0xd0 <__bad_interrupt>
      62:	00 00       	nop
      64:	35 c0       	rjmp	.+106    	; 0xd0 <__bad_interrupt>
      66:	00 00       	nop
      68:	99 12       	cpse	r9, r25
      6a:	9d 11       	cpse	r25, r13
      6c:	ab 11       	cpse	r26, r11
      6e:	a8 11       	cpse	r26, r8
      70:	a8 11       	cpse	r26, r8
      72:	a8 11       	cpse	r26, r8
      74:	a8 11       	cpse	r26, r8
      76:	a8 11       	cpse	r26, r8
      78:	a8 11       	cpse	r26, r8
      7a:	a8 11       	cpse	r26, r8
      7c:	a8 11       	cpse	r26, r8
      7e:	a8 11       	cpse	r26, r8
      80:	a8 11       	cpse	r26, r8
      82:	ae 12       	cpse	r10, r30
      84:	a8 11       	cpse	r26, r8
      86:	a8 11       	cpse	r26, r8
      88:	a8 11       	cpse	r26, r8
      8a:	5d 11       	cpse	r21, r13
      8c:	a8 11       	cpse	r26, r8
      8e:	ab 11       	cpse	r26, r11
      90:	a8 11       	cpse	r26, r8
      92:	a8 11       	cpse	r26, r8
      94:	76 12       	cpse	r7, r22

00000096 <__ctors_end>:
      96:	11 24       	eor	r1, r1
      98:	1f be       	out	0x3f, r1	; 63
      9a:	cf ef       	ldi	r28, 0xFF	; 255
      9c:	d8 e0       	ldi	r29, 0x08	; 8
      9e:	de bf       	out	0x3e, r29	; 62
      a0:	cd bf       	out	0x3d, r28	; 61

000000a2 <__do_copy_data>:
      a2:	12 e0       	ldi	r17, 0x02	; 2
      a4:	a0 e0       	ldi	r26, 0x00	; 0
      a6:	b1 e0       	ldi	r27, 0x01	; 1
      a8:	e0 e8       	ldi	r30, 0x80	; 128
      aa:	fc e2       	ldi	r31, 0x2C	; 44
      ac:	02 c0       	rjmp	.+4      	; 0xb2 <__do_copy_data+0x10>
      ae:	05 90       	lpm	r0, Z+
      b0:	0d 92       	st	X+, r0
      b2:	a0 3b       	cpi	r26, 0xB0	; 176
      b4:	b1 07       	cpc	r27, r17
      b6:	d9 f7       	brne	.-10     	; 0xae <__do_copy_data+0xc>

000000b8 <__do_clear_bss>:
      b8:	24 e0       	ldi	r18, 0x04	; 4
      ba:	a0 eb       	ldi	r26, 0xB0	; 176
      bc:	b2 e0       	ldi	r27, 0x02	; 2
      be:	01 c0       	rjmp	.+2      	; 0xc2 <.do_clear_bss_start>

000000c0 <.do_clear_bss_loop>:
      c0:	1d 92       	st	X+, r1

000000c2 <.do_clear_bss_start>:
      c2:	a8 34       	cpi	r26, 0x48	; 72
      c4:	b2 07       	cpc	r27, r18
      c6:	e1 f7       	brne	.-8      	; 0xc0 <.do_clear_bss_loop>
      c8:	0e 94 e1 12 	call	0x25c2	; 0x25c2 <main>
      cc:	0c 94 3e 16 	jmp	0x2c7c	; 0x2c7c <_exit>

000000d0 <__bad_interrupt>:
      d0:	97 cf       	rjmp	.-210    	; 0x0 <__vectors>

000000d2 <process_thread_adp_process>:

/*---------------------------------------------------------------------------*/
PROCESS(adp_process, "adp process");
/*---------------------------------------------------------------------------*/
PROCESS_THREAD(adp_process, ev, data)
{
      d2:	cf 93       	push	r28
      d4:	df 93       	push	r29
      d6:	ec 01       	movw	r28, r24
   static struct etimer timer_etimer;
	static uint8_t retry=10;
	
    PROCESS_BEGIN();
      d8:	88 81       	ld	r24, Y
      da:	99 81       	ldd	r25, Y+1	; 0x01
      dc:	00 97       	sbiw	r24, 0x00	; 0
      de:	19 f0       	breq	.+6      	; 0xe6 <process_thread_adp_process+0x14>
      e0:	45 97       	sbiw	r24, 0x15	; 21
      e2:	b9 f0       	breq	.+46     	; 0x112 <process_thread_adp_process+0x40>
      e4:	2f c0       	rjmp	.+94     	; 0x144 <process_thread_adp_process+0x72>

    printf("ADP Wait!\n");
      e6:	87 e7       	ldi	r24, 0x77	; 119
      e8:	91 e0       	ldi	r25, 0x01	; 1
      ea:	9f 93       	push	r25
      ec:	8f 93       	push	r24
      ee:	0e 94 ce 12 	call	0x259c	; 0x259c <xprintf>

	while( (adp_wait_for_handshake() != ADP_HANDSHAKE_ACCEPTED) && (--retry > 0))
      f2:	0f 90       	pop	r0
      f4:	0f 90       	pop	r0
      f6:	0f c0       	rjmp	.+30     	; 0x116 <process_thread_adp_process+0x44>
	{
		etimer_set(&timer_etimer,15);// 150 mSn		 
      f8:	4f e0       	ldi	r20, 0x0F	; 15
      fa:	50 e0       	ldi	r21, 0x00	; 0
      fc:	60 e0       	ldi	r22, 0x00	; 0
      fe:	70 e0       	ldi	r23, 0x00	; 0
     100:	80 eb       	ldi	r24, 0xB0	; 176
     102:	92 e0       	ldi	r25, 0x02	; 2
     104:	4f d2       	rcall	.+1182   	; 0x5a4 <etimer_set>
		PROCESS_WAIT_EVENT_UNTIL(ev == PROCESS_EVENT_TIMER);			
     106:	85 e1       	ldi	r24, 0x15	; 21
     108:	90 e0       	ldi	r25, 0x00	; 0
     10a:	99 83       	std	Y+1, r25	; 0x01
     10c:	88 83       	st	Y, r24
     10e:	81 e0       	ldi	r24, 0x01	; 1
     110:	1e c0       	rjmp	.+60     	; 0x14e <process_thread_adp_process+0x7c>
     112:	68 38       	cpi	r22, 0x88	; 136
	
    PROCESS_BEGIN();

    printf("ADP Wait!\n");

	while( (adp_wait_for_handshake() != ADP_HANDSHAKE_ACCEPTED) && (--retry > 0))
     114:	d9 f4       	brne	.+54     	; 0x14c <process_thread_adp_process+0x7a>
     116:	ae d6       	rcall	.+3420   	; 0xe74 <adp_wait_for_handshake>
     118:	88 23       	and	r24, r24
     11a:	41 f0       	breq	.+16     	; 0x12c <process_thread_adp_process+0x5a>
     11c:	80 91 00 01 	lds	r24, 0x0100	; 0x800100 <__data_start>
     120:	81 50       	subi	r24, 0x01	; 1
     122:	80 93 00 01 	sts	0x0100, r24	; 0x800100 <__data_start>
     126:	88 23       	and	r24, r24
     128:	49 f0       	breq	.+18     	; 0x13c <process_thread_adp_process+0x6a>
     12a:	e6 cf       	rjmp	.-52     	; 0xf8 <process_thread_adp_process+0x26>
	{
		etimer_set(&timer_etimer,15);// 150 mSn		 
		PROCESS_WAIT_EVENT_UNTIL(ev == PROCESS_EVENT_TIMER);			
	}
	
	if(retry != 0)
     12c:	80 91 00 01 	lds	r24, 0x0100	; 0x800100 <__data_start>
     130:	88 23       	and	r24, r24
     132:	21 f0       	breq	.+8      	; 0x13c <process_thread_adp_process+0x6a>
	{			
		adp_window_add_dashboard_control();
     134:	0e 94 c7 0e 	call	0x1d8e	; 0x1d8e <adp_window_add_dashboard_control>

		adp_window_add_terminal();
     138:	0e 94 95 0e 	call	0x1d2a	; 0x1d2a <adp_window_add_terminal>
	}

	PROCESS_EXIT();
     13c:	19 82       	std	Y+1, r1	; 0x01
     13e:	18 82       	st	Y, r1
     140:	82 e0       	ldi	r24, 0x02	; 2
     142:	05 c0       	rjmp	.+10     	; 0x14e <process_thread_adp_process+0x7c>
	
    PROCESS_END();
     144:	19 82       	std	Y+1, r1	; 0x01
     146:	18 82       	st	Y, r1
     148:	83 e0       	ldi	r24, 0x03	; 3
     14a:	01 c0       	rjmp	.+2      	; 0x14e <process_thread_adp_process+0x7c>
    printf("ADP Wait!\n");

	while( (adp_wait_for_handshake() != ADP_HANDSHAKE_ACCEPTED) && (--retry > 0))
	{
		etimer_set(&timer_etimer,15);// 150 mSn		 
		PROCESS_WAIT_EVENT_UNTIL(ev == PROCESS_EVENT_TIMER);			
     14c:	81 e0       	ldi	r24, 0x01	; 1
	}

	PROCESS_EXIT();
	
    PROCESS_END();
}
     14e:	df 91       	pop	r29
     150:	cf 91       	pop	r28
     152:	08 95       	ret

00000154 <process_thread_buzzer_process>:

/*---------------------------------------------------------------------------*/
PROCESS(buzzer_process, "buzzer process");
/*---------------------------------------------------------------------------*/
PROCESS_THREAD(buzzer_process, ev, data)
{
     154:	cf 93       	push	r28
     156:	df 93       	push	r29
     158:	ec 01       	movw	r28, r24
   static struct etimer timer_etimer;

    PROCESS_BEGIN();
     15a:	88 81       	ld	r24, Y
     15c:	99 81       	ldd	r25, Y+1	; 0x01
     15e:	83 31       	cpi	r24, 0x13	; 19
     160:	91 05       	cpc	r25, r1
     162:	d1 f0       	breq	.+52     	; 0x198 <process_thread_buzzer_process+0x44>
     164:	8a 31       	cpi	r24, 0x1A	; 26
     166:	91 05       	cpc	r25, r1
     168:	71 f1       	breq	.+92     	; 0x1c6 <process_thread_buzzer_process+0x72>
     16a:	89 2b       	or	r24, r25
     16c:	b1 f5       	brne	.+108    	; 0x1da <process_thread_buzzer_process+0x86>

    etimer_set(&timer_etimer,1*CLOCK_SECOND);
     16e:	44 e6       	ldi	r20, 0x64	; 100
     170:	50 e0       	ldi	r21, 0x00	; 0
     172:	60 e0       	ldi	r22, 0x00	; 0
     174:	70 e0       	ldi	r23, 0x00	; 0
     176:	8c eb       	ldi	r24, 0xBC	; 188
     178:	92 e0       	ldi	r25, 0x02	; 2
     17a:	14 d2       	rcall	.+1064   	; 0x5a4 <etimer_set>

    printf("Buzzer worked!\n");
     17c:	8e e8       	ldi	r24, 0x8E	; 142
     17e:	91 e0       	ldi	r25, 0x01	; 1
     180:	9f 93       	push	r25
     182:	8f 93       	push	r24
     184:	0e 94 ce 12 	call	0x259c	; 0x259c <xprintf>

    //PROCESS_WAIT_UNTIL(etimer_expired(&etimer_timer));
    PROCESS_WAIT_EVENT_UNTIL(ev == PROCESS_EVENT_TIMER);
     188:	83 e1       	ldi	r24, 0x13	; 19
     18a:	90 e0       	ldi	r25, 0x00	; 0
     18c:	99 83       	std	Y+1, r25	; 0x01
     18e:	88 83       	st	Y, r24
     190:	0f 90       	pop	r0
     192:	0f 90       	pop	r0
     194:	81 e0       	ldi	r24, 0x01	; 1
     196:	28 c0       	rjmp	.+80     	; 0x1e8 <process_thread_buzzer_process+0x94>
     198:	68 38       	cpi	r22, 0x88	; 136
     19a:	19 f5       	brne	.+70     	; 0x1e2 <process_thread_buzzer_process+0x8e>

    printf("Buzzer Wait!\n");
     19c:	8e e9       	ldi	r24, 0x9E	; 158
     19e:	91 e0       	ldi	r25, 0x01	; 1
     1a0:	9f 93       	push	r25
     1a2:	8f 93       	push	r24
     1a4:	0e 94 ce 12 	call	0x259c	; 0x259c <xprintf>

    etimer_set(&timer_etimer,1*CLOCK_SECOND);
     1a8:	44 e6       	ldi	r20, 0x64	; 100
     1aa:	50 e0       	ldi	r21, 0x00	; 0
     1ac:	60 e0       	ldi	r22, 0x00	; 0
     1ae:	70 e0       	ldi	r23, 0x00	; 0
     1b0:	8c eb       	ldi	r24, 0xBC	; 188
     1b2:	92 e0       	ldi	r25, 0x02	; 2
     1b4:	f7 d1       	rcall	.+1006   	; 0x5a4 <etimer_set>

    //PROCESS_WAIT_UNTIL(timer_expired(&etimer_timer));
    PROCESS_WAIT_EVENT_UNTIL(ev == PROCESS_EVENT_TIMER);
     1b6:	8a e1       	ldi	r24, 0x1A	; 26
     1b8:	90 e0       	ldi	r25, 0x00	; 0
     1ba:	99 83       	std	Y+1, r25	; 0x01
     1bc:	88 83       	st	Y, r24
     1be:	0f 90       	pop	r0
     1c0:	0f 90       	pop	r0
     1c2:	81 e0       	ldi	r24, 0x01	; 1
     1c4:	11 c0       	rjmp	.+34     	; 0x1e8 <process_thread_buzzer_process+0x94>
     1c6:	68 38       	cpi	r22, 0x88	; 136
     1c8:	71 f4       	brne	.+28     	; 0x1e6 <process_thread_buzzer_process+0x92>

    printf("Buzzer End!\n");
     1ca:	8c ea       	ldi	r24, 0xAC	; 172
     1cc:	91 e0       	ldi	r25, 0x01	; 1
     1ce:	9f 93       	push	r25
     1d0:	8f 93       	push	r24
     1d2:	0e 94 ce 12 	call	0x259c	; 0x259c <xprintf>
     1d6:	0f 90       	pop	r0
     1d8:	0f 90       	pop	r0

   // process_start(&led_process,NULL);

    PROCESS_END();
     1da:	19 82       	std	Y+1, r1	; 0x01
     1dc:	18 82       	st	Y, r1
     1de:	83 e0       	ldi	r24, 0x03	; 3
     1e0:	03 c0       	rjmp	.+6      	; 0x1e8 <process_thread_buzzer_process+0x94>
    etimer_set(&timer_etimer,1*CLOCK_SECOND);

    printf("Buzzer worked!\n");

    //PROCESS_WAIT_UNTIL(etimer_expired(&etimer_timer));
    PROCESS_WAIT_EVENT_UNTIL(ev == PROCESS_EVENT_TIMER);
     1e2:	81 e0       	ldi	r24, 0x01	; 1
     1e4:	01 c0       	rjmp	.+2      	; 0x1e8 <process_thread_buzzer_process+0x94>
    printf("Buzzer Wait!\n");

    etimer_set(&timer_etimer,1*CLOCK_SECOND);

    //PROCESS_WAIT_UNTIL(timer_expired(&etimer_timer));
    PROCESS_WAIT_EVENT_UNTIL(ev == PROCESS_EVENT_TIMER);
     1e6:	81 e0       	ldi	r24, 0x01	; 1
    printf("Buzzer End!\n");

   // process_start(&led_process,NULL);

    PROCESS_END();
}
     1e8:	df 91       	pop	r29
     1ea:	cf 91       	pop	r28
     1ec:	08 95       	ret

000001ee <process_thread_led_process>:

/*---------------------------------------------------------------------------*/
PROCESS(led_process, "led process");
/*---------------------------------------------------------------------------*/
PROCESS_THREAD(led_process, ev, data)
{
     1ee:	cf 93       	push	r28
     1f0:	df 93       	push	r29
	static struct etimer timer_etimer;

    PROCESS_BEGIN();
     1f2:	fc 01       	movw	r30, r24
     1f4:	20 81       	ld	r18, Z
     1f6:	31 81       	ldd	r19, Z+1	; 0x01
     1f8:	21 15       	cp	r18, r1
     1fa:	31 05       	cpc	r19, r1
     1fc:	21 f0       	breq	.+8      	; 0x206 <process_thread_led_process+0x18>
     1fe:	23 31       	cpi	r18, 0x13	; 19
     200:	31 05       	cpc	r19, r1
     202:	c9 f0       	breq	.+50     	; 0x236 <process_thread_led_process+0x48>
     204:	1b c0       	rjmp	.+54     	; 0x23c <process_thread_led_process+0x4e>
     206:	ec 01       	movw	r28, r24

	while(1)
	{    
		printf("Led Toggle!\n");
     208:	88 ec       	ldi	r24, 0xC8	; 200
     20a:	91 e0       	ldi	r25, 0x01	; 1
     20c:	9f 93       	push	r25
     20e:	8f 93       	push	r24
     210:	0e 94 ce 12 	call	0x259c	; 0x259c <xprintf>
 */
__always_inline static void arch_ioport_toggle_pin_level(ioport_pin_t pin)
{
	PORT_t *base = arch_ioport_pin_to_base(pin);

	base->PINCRL = arch_ioport_pin_to_mask(pin);
     214:	88 e0       	ldi	r24, 0x08	; 8
     216:	89 b9       	out	0x09, r24	; 9
		gpio_toggle_pin(GREEN_LED_PIN);	
		etimer_set(&timer_etimer,CLOCK_SECOND);		
     218:	44 e6       	ldi	r20, 0x64	; 100
     21a:	50 e0       	ldi	r21, 0x00	; 0
     21c:	60 e0       	ldi	r22, 0x00	; 0
     21e:	70 e0       	ldi	r23, 0x00	; 0
     220:	88 ec       	ldi	r24, 0xC8	; 200
     222:	92 e0       	ldi	r25, 0x02	; 2
     224:	bf d1       	rcall	.+894    	; 0x5a4 <etimer_set>
		PROCESS_WAIT_EVENT_UNTIL(ev == PROCESS_EVENT_TIMER);
     226:	83 e1       	ldi	r24, 0x13	; 19
     228:	90 e0       	ldi	r25, 0x00	; 0
     22a:	99 83       	std	Y+1, r25	; 0x01
     22c:	88 83       	st	Y, r24
     22e:	0f 90       	pop	r0
     230:	0f 90       	pop	r0
     232:	81 e0       	ldi	r24, 0x01	; 1
     234:	09 c0       	rjmp	.+18     	; 0x248 <process_thread_led_process+0x5a>
     236:	68 38       	cpi	r22, 0x88	; 136
     238:	31 f4       	brne	.+12     	; 0x246 <process_thread_led_process+0x58>
     23a:	e5 cf       	rjmp	.-54     	; 0x206 <process_thread_led_process+0x18>
	}	

    PROCESS_END();
     23c:	fc 01       	movw	r30, r24
     23e:	11 82       	std	Z+1, r1	; 0x01
     240:	10 82       	st	Z, r1
     242:	83 e0       	ldi	r24, 0x03	; 3
     244:	01 c0       	rjmp	.+2      	; 0x248 <process_thread_led_process+0x5a>
	while(1)
	{    
		printf("Led Toggle!\n");
		gpio_toggle_pin(GREEN_LED_PIN);	
		etimer_set(&timer_etimer,CLOCK_SECOND);		
		PROCESS_WAIT_EVENT_UNTIL(ev == PROCESS_EVENT_TIMER);
     246:	81 e0       	ldi	r24, 0x01	; 1
	}	

    PROCESS_END();
}
     248:	df 91       	pop	r29
     24a:	cf 91       	pop	r28
     24c:	08 95       	ret

0000024e <process_thread_start_process>:
			);
/*---------------------------------------------------------------------------*/
PROCESS(start_process, "start process");
/*---------------------------------------------------------------------------*/
PROCESS_THREAD(start_process, ev, data)
{
     24e:	0f 93       	push	r16
     250:	1f 93       	push	r17
     252:	cf 93       	push	r28
     254:	df 93       	push	r29
	int i;
	
    PROCESS_BEGIN();
     256:	fc 01       	movw	r30, r24
     258:	20 81       	ld	r18, Z
     25a:	31 81       	ldd	r19, Z+1	; 0x01
     25c:	23 2b       	or	r18, r19
     25e:	29 f5       	brne	.+74     	; 0x2aa <process_thread_start_process+0x5c>
     260:	8c 01       	movw	r16, r24

	printf("Start the Operation System.\n");
     262:	81 ee       	ldi	r24, 0xE1	; 225
     264:	91 e0       	ldi	r25, 0x01	; 1
     266:	9f 93       	push	r25
     268:	8f 93       	push	r24
     26a:	0e 94 ce 12 	call	0x259c	; 0x259c <xprintf>
	
    printf("Creating Threads.\n");
     26e:	8e ef       	ldi	r24, 0xFE	; 254
     270:	91 e0       	ldi	r25, 0x01	; 1
     272:	9f 93       	push	r25
     274:	8f 93       	push	r24
     276:	0e 94 ce 12 	call	0x259c	; 0x259c <xprintf>
	
	for(i = 0; procinit[i] != NULL; ++i) 
     27a:	80 91 29 01 	lds	r24, 0x0129	; 0x800129 <procinit>
     27e:	90 91 2a 01 	lds	r25, 0x012A	; 0x80012a <procinit+0x1>
     282:	0f 90       	pop	r0
     284:	0f 90       	pop	r0
     286:	0f 90       	pop	r0
     288:	0f 90       	pop	r0
     28a:	00 97       	sbiw	r24, 0x00	; 0
     28c:	49 f0       	breq	.+18     	; 0x2a0 <process_thread_start_process+0x52>
     28e:	cb e2       	ldi	r28, 0x2B	; 43
     290:	d1 e0       	ldi	r29, 0x01	; 1
	{
		process_start((struct process *)procinit[i], NULL);// tüm thread leri çalýþtýrýr.
     292:	60 e0       	ldi	r22, 0x00	; 0
     294:	70 e0       	ldi	r23, 0x00	; 0
     296:	02 d3       	rcall	.+1540   	; 0x89c <process_start>

	printf("Start the Operation System.\n");
	
    printf("Creating Threads.\n");
	
	for(i = 0; procinit[i] != NULL; ++i) 
     298:	89 91       	ld	r24, Y+
     29a:	99 91       	ld	r25, Y+
     29c:	00 97       	sbiw	r24, 0x00	; 0
     29e:	c9 f7       	brne	.-14     	; 0x292 <process_thread_start_process+0x44>
	{
		process_start((struct process *)procinit[i], NULL);// tüm thread leri çalýþtýrýr.
	}
	
	PROCESS_EXIT();
     2a0:	f8 01       	movw	r30, r16
     2a2:	11 82       	std	Z+1, r1	; 0x01
     2a4:	10 82       	st	Z, r1
     2a6:	82 e0       	ldi	r24, 0x02	; 2
     2a8:	04 c0       	rjmp	.+8      	; 0x2b2 <process_thread_start_process+0x64>
	
    PROCESS_END();
     2aa:	fc 01       	movw	r30, r24
     2ac:	11 82       	std	Z+1, r1	; 0x01
     2ae:	10 82       	st	Z, r1
     2b0:	83 e0       	ldi	r24, 0x03	; 3
}
     2b2:	df 91       	pop	r29
     2b4:	cf 91       	pop	r28
     2b6:	1f 91       	pop	r17
     2b8:	0f 91       	pop	r16
     2ba:	08 95       	ret

000002bc <ecos_tick>:
	return seconds;
}
/*---------------------------------------------------------------------------*/
void clock_set_seconds(unsigned long sec)
{
	seconds = sec;
     2bc:	80 91 d4 02 	lds	r24, 0x02D4	; 0x8002d4 <ticks>
     2c0:	90 91 d5 02 	lds	r25, 0x02D5	; 0x8002d5 <ticks+0x1>
     2c4:	a0 91 d6 02 	lds	r26, 0x02D6	; 0x8002d6 <ticks+0x2>
     2c8:	b0 91 d7 02 	lds	r27, 0x02D7	; 0x8002d7 <ticks+0x3>
     2cc:	01 96       	adiw	r24, 0x01	; 1
     2ce:	a1 1d       	adc	r26, r1
     2d0:	b1 1d       	adc	r27, r1
     2d2:	80 93 d4 02 	sts	0x02D4, r24	; 0x8002d4 <ticks>
     2d6:	90 93 d5 02 	sts	0x02D5, r25	; 0x8002d5 <ticks+0x1>
     2da:	a0 93 d6 02 	sts	0x02D6, r26	; 0x8002d6 <ticks+0x2>
     2de:	b0 93 d7 02 	sts	0x02D7, r27	; 0x8002d7 <ticks+0x3>
     2e2:	60 91 d4 02 	lds	r22, 0x02D4	; 0x8002d4 <ticks>
     2e6:	70 91 d5 02 	lds	r23, 0x02D5	; 0x8002d5 <ticks+0x1>
     2ea:	80 91 d6 02 	lds	r24, 0x02D6	; 0x8002d6 <ticks+0x2>
     2ee:	90 91 d7 02 	lds	r25, 0x02D7	; 0x8002d7 <ticks+0x3>
     2f2:	24 e6       	ldi	r18, 0x64	; 100
     2f4:	30 e0       	ldi	r19, 0x00	; 0
     2f6:	40 e0       	ldi	r20, 0x00	; 0
     2f8:	50 e0       	ldi	r21, 0x00	; 0
     2fa:	0e 94 11 13 	call	0x2622	; 0x2622 <__udivmodsi4>
     2fe:	67 2b       	or	r22, r23
     300:	68 2b       	or	r22, r24
     302:	69 2b       	or	r22, r25
     304:	99 f4       	brne	.+38     	; 0x32c <ecos_tick+0x70>
     306:	80 91 d8 02 	lds	r24, 0x02D8	; 0x8002d8 <seconds>
     30a:	90 91 d9 02 	lds	r25, 0x02D9	; 0x8002d9 <seconds+0x1>
     30e:	a0 91 da 02 	lds	r26, 0x02DA	; 0x8002da <seconds+0x2>
     312:	b0 91 db 02 	lds	r27, 0x02DB	; 0x8002db <seconds+0x3>
     316:	01 96       	adiw	r24, 0x01	; 1
     318:	a1 1d       	adc	r26, r1
     31a:	b1 1d       	adc	r27, r1
     31c:	80 93 d8 02 	sts	0x02D8, r24	; 0x8002d8 <seconds>
     320:	90 93 d9 02 	sts	0x02D9, r25	; 0x8002d9 <seconds+0x1>
     324:	a0 93 da 02 	sts	0x02DA, r26	; 0x8002da <seconds+0x2>
     328:	b0 93 db 02 	sts	0x02DB, r27	; 0x8002db <seconds+0x3>
     32c:	44 d1       	rcall	.+648    	; 0x5b6 <etimer_pending>
     32e:	89 2b       	or	r24, r25
     330:	09 f0       	breq	.+2      	; 0x334 <ecos_tick+0x78>
     332:	6a c0       	rjmp	.+212    	; 0x408 <etimer_request_poll>
     334:	08 95       	ret

00000336 <clock_time>:
}
/*---------------------------------------------------------------------------*/
clock_time_t clock_time(void)
{
	return ticks;
     336:	60 91 d4 02 	lds	r22, 0x02D4	; 0x8002d4 <ticks>
     33a:	70 91 d5 02 	lds	r23, 0x02D5	; 0x8002d5 <ticks+0x1>
     33e:	80 91 d6 02 	lds	r24, 0x02D6	; 0x8002d6 <ticks+0x2>
     342:	90 91 d7 02 	lds	r25, 0x02D7	; 0x8002d7 <ticks+0x3>
}
     346:	08 95       	ret

00000348 <update_time>:
/*---------------------------------------------------------------------------*/
clock_time_t
etimer_start_time(struct etimer *et)
{
  return et->timer.start;
}
     348:	cf 92       	push	r12
     34a:	df 92       	push	r13
     34c:	ef 92       	push	r14
     34e:	ff 92       	push	r15
     350:	0f 93       	push	r16
     352:	1f 93       	push	r17
     354:	80 91 e0 02 	lds	r24, 0x02E0	; 0x8002e0 <timerlist>
     358:	90 91 e1 02 	lds	r25, 0x02E1	; 0x8002e1 <timerlist+0x1>
     35c:	89 2b       	or	r24, r25
     35e:	49 f4       	brne	.+18     	; 0x372 <update_time+0x2a>
     360:	10 92 dc 02 	sts	0x02DC, r1	; 0x8002dc <next_expiration>
     364:	10 92 dd 02 	sts	0x02DD, r1	; 0x8002dd <next_expiration+0x1>
     368:	10 92 de 02 	sts	0x02DE, r1	; 0x8002de <next_expiration+0x2>
     36c:	10 92 df 02 	sts	0x02DF, r1	; 0x8002df <next_expiration+0x3>
     370:	44 c0       	rjmp	.+136    	; 0x3fa <update_time+0xb2>
     372:	e1 df       	rcall	.-62     	; 0x336 <clock_time>
     374:	6b 01       	movw	r12, r22
     376:	7c 01       	movw	r14, r24
     378:	e0 91 e0 02 	lds	r30, 0x02E0	; 0x8002e0 <timerlist>
     37c:	f0 91 e1 02 	lds	r31, 0x02E1	; 0x8002e1 <timerlist+0x1>
     380:	40 81       	ld	r20, Z
     382:	51 81       	ldd	r21, Z+1	; 0x01
     384:	62 81       	ldd	r22, Z+2	; 0x02
     386:	73 81       	ldd	r23, Z+3	; 0x03
     388:	84 81       	ldd	r24, Z+4	; 0x04
     38a:	95 81       	ldd	r25, Z+5	; 0x05
     38c:	a6 81       	ldd	r26, Z+6	; 0x06
     38e:	b7 81       	ldd	r27, Z+7	; 0x07
     390:	48 0f       	add	r20, r24
     392:	59 1f       	adc	r21, r25
     394:	6a 1f       	adc	r22, r26
     396:	7b 1f       	adc	r23, r27
     398:	4c 19       	sub	r20, r12
     39a:	5d 09       	sbc	r21, r13
     39c:	6e 09       	sbc	r22, r14
     39e:	7f 09       	sbc	r23, r15
     3a0:	00 84       	ldd	r0, Z+8	; 0x08
     3a2:	f1 85       	ldd	r31, Z+9	; 0x09
     3a4:	e0 2d       	mov	r30, r0
     3a6:	30 97       	sbiw	r30, 0x00	; 0
     3a8:	e1 f0       	breq	.+56     	; 0x3e2 <update_time+0x9a>
     3aa:	00 81       	ld	r16, Z
     3ac:	11 81       	ldd	r17, Z+1	; 0x01
     3ae:	22 81       	ldd	r18, Z+2	; 0x02
     3b0:	33 81       	ldd	r19, Z+3	; 0x03
     3b2:	84 81       	ldd	r24, Z+4	; 0x04
     3b4:	95 81       	ldd	r25, Z+5	; 0x05
     3b6:	a6 81       	ldd	r26, Z+6	; 0x06
     3b8:	b7 81       	ldd	r27, Z+7	; 0x07
     3ba:	80 0f       	add	r24, r16
     3bc:	91 1f       	adc	r25, r17
     3be:	a2 1f       	adc	r26, r18
     3c0:	b3 1f       	adc	r27, r19
     3c2:	8c 19       	sub	r24, r12
     3c4:	9d 09       	sbc	r25, r13
     3c6:	ae 09       	sbc	r26, r14
     3c8:	bf 09       	sbc	r27, r15
     3ca:	84 17       	cp	r24, r20
     3cc:	95 07       	cpc	r25, r21
     3ce:	a6 07       	cpc	r26, r22
     3d0:	b7 07       	cpc	r27, r23
     3d2:	10 f4       	brcc	.+4      	; 0x3d8 <update_time+0x90>
     3d4:	ac 01       	movw	r20, r24
     3d6:	bd 01       	movw	r22, r26
     3d8:	00 84       	ldd	r0, Z+8	; 0x08
     3da:	f1 85       	ldd	r31, Z+9	; 0x09
     3dc:	e0 2d       	mov	r30, r0
     3de:	30 97       	sbiw	r30, 0x00	; 0
     3e0:	21 f7       	brne	.-56     	; 0x3aa <update_time+0x62>
     3e2:	4c 0d       	add	r20, r12
     3e4:	5d 1d       	adc	r21, r13
     3e6:	6e 1d       	adc	r22, r14
     3e8:	7f 1d       	adc	r23, r15
     3ea:	40 93 dc 02 	sts	0x02DC, r20	; 0x8002dc <next_expiration>
     3ee:	50 93 dd 02 	sts	0x02DD, r21	; 0x8002dd <next_expiration+0x1>
     3f2:	60 93 de 02 	sts	0x02DE, r22	; 0x8002de <next_expiration+0x2>
     3f6:	70 93 df 02 	sts	0x02DF, r23	; 0x8002df <next_expiration+0x3>
     3fa:	1f 91       	pop	r17
     3fc:	0f 91       	pop	r16
     3fe:	ff 90       	pop	r15
     400:	ef 90       	pop	r14
     402:	df 90       	pop	r13
     404:	cf 90       	pop	r12
     406:	08 95       	ret

00000408 <etimer_request_poll>:
     408:	83 e3       	ldi	r24, 0x33	; 51
     40a:	91 e0       	ldi	r25, 0x01	; 1
     40c:	6b c2       	rjmp	.+1238   	; 0x8e4 <process_poll>
     40e:	08 95       	ret

00000410 <process_thread_etimer_process>:
     410:	cf 92       	push	r12
     412:	df 92       	push	r13
     414:	ef 92       	push	r14
     416:	ff 92       	push	r15
     418:	0f 93       	push	r16
     41a:	1f 93       	push	r17
     41c:	cf 93       	push	r28
     41e:	df 93       	push	r29
     420:	8c 01       	movw	r16, r24
     422:	fc 01       	movw	r30, r24
     424:	80 81       	ld	r24, Z
     426:	91 81       	ldd	r25, Z+1	; 0x01
     428:	00 97       	sbiw	r24, 0x00	; 0
     42a:	19 f0       	breq	.+6      	; 0x432 <process_thread_etimer_process+0x22>
     42c:	c1 97       	sbiw	r24, 0x31	; 49
     42e:	61 f0       	breq	.+24     	; 0x448 <process_thread_etimer_process+0x38>
     430:	76 c0       	rjmp	.+236    	; 0x51e <process_thread_etimer_process+0x10e>
     432:	10 92 e1 02 	sts	0x02E1, r1	; 0x8002e1 <timerlist+0x1>
     436:	10 92 e0 02 	sts	0x02E0, r1	; 0x8002e0 <timerlist>
     43a:	81 e3       	ldi	r24, 0x31	; 49
     43c:	90 e0       	ldi	r25, 0x00	; 0
     43e:	f8 01       	movw	r30, r16
     440:	91 83       	std	Z+1, r25	; 0x01
     442:	80 83       	st	Z, r24
     444:	81 e0       	ldi	r24, 0x01	; 1
     446:	6f c0       	rjmp	.+222    	; 0x526 <process_thread_etimer_process+0x116>
     448:	67 38       	cpi	r22, 0x87	; 135
     44a:	99 f5       	brne	.+102    	; 0x4b2 <process_thread_etimer_process+0xa2>
     44c:	e0 91 e0 02 	lds	r30, 0x02E0	; 0x8002e0 <timerlist>
     450:	f0 91 e1 02 	lds	r31, 0x02E1	; 0x8002e1 <timerlist+0x1>
     454:	30 97       	sbiw	r30, 0x00	; 0
     456:	89 f3       	breq	.-30     	; 0x43a <process_thread_etimer_process+0x2a>
     458:	82 85       	ldd	r24, Z+10	; 0x0a
     45a:	93 85       	ldd	r25, Z+11	; 0x0b
     45c:	48 17       	cp	r20, r24
     45e:	59 07       	cpc	r21, r25
     460:	19 f5       	brne	.+70     	; 0x4a8 <process_thread_etimer_process+0x98>
     462:	00 84       	ldd	r0, Z+8	; 0x08
     464:	f1 85       	ldd	r31, Z+9	; 0x09
     466:	e0 2d       	mov	r30, r0
     468:	30 97       	sbiw	r30, 0x00	; 0
     46a:	29 f4       	brne	.+10     	; 0x476 <process_thread_etimer_process+0x66>
     46c:	10 92 e1 02 	sts	0x02E1, r1	; 0x8002e1 <timerlist+0x1>
     470:	10 92 e0 02 	sts	0x02E0, r1	; 0x8002e0 <timerlist>
     474:	e2 cf       	rjmp	.-60     	; 0x43a <process_thread_etimer_process+0x2a>
     476:	82 85       	ldd	r24, Z+10	; 0x0a
     478:	93 85       	ldd	r25, Z+11	; 0x0b
     47a:	48 17       	cp	r20, r24
     47c:	59 07       	cpc	r21, r25
     47e:	89 f3       	breq	.-30     	; 0x462 <process_thread_etimer_process+0x52>
     480:	f0 93 e1 02 	sts	0x02E1, r31	; 0x8002e1 <timerlist+0x1>
     484:	e0 93 e0 02 	sts	0x02E0, r30	; 0x8002e0 <timerlist>
     488:	0f c0       	rjmp	.+30     	; 0x4a8 <process_thread_etimer_process+0x98>
     48a:	1a 96       	adiw	r26, 0x0a	; 10
     48c:	8d 91       	ld	r24, X+
     48e:	9c 91       	ld	r25, X
     490:	1b 97       	sbiw	r26, 0x0b	; 11
     492:	48 17       	cp	r20, r24
     494:	59 07       	cpc	r21, r25
     496:	39 f4       	brne	.+14     	; 0x4a6 <process_thread_etimer_process+0x96>
     498:	18 96       	adiw	r26, 0x08	; 8
     49a:	8d 91       	ld	r24, X+
     49c:	9c 91       	ld	r25, X
     49e:	19 97       	sbiw	r26, 0x09	; 9
     4a0:	91 87       	std	Z+9, r25	; 0x09
     4a2:	80 87       	std	Z+8, r24	; 0x08
     4a4:	01 c0       	rjmp	.+2      	; 0x4a8 <process_thread_etimer_process+0x98>
     4a6:	fd 01       	movw	r30, r26
     4a8:	a0 85       	ldd	r26, Z+8	; 0x08
     4aa:	b1 85       	ldd	r27, Z+9	; 0x09
     4ac:	10 97       	sbiw	r26, 0x00	; 0
     4ae:	69 f7       	brne	.-38     	; 0x48a <process_thread_etimer_process+0x7a>
     4b0:	c4 cf       	rjmp	.-120    	; 0x43a <process_thread_etimer_process+0x2a>
     4b2:	62 38       	cpi	r22, 0x82	; 130
     4b4:	11 f6       	brne	.-124    	; 0x43a <process_thread_etimer_process+0x2a>
     4b6:	c1 2c       	mov	r12, r1
     4b8:	d1 2c       	mov	r13, r1
     4ba:	c0 91 e0 02 	lds	r28, 0x02E0	; 0x8002e0 <timerlist>
     4be:	d0 91 e1 02 	lds	r29, 0x02E1	; 0x8002e1 <timerlist+0x1>
     4c2:	20 97       	sbiw	r28, 0x00	; 0
     4c4:	09 f4       	brne	.+2      	; 0x4c8 <process_thread_etimer_process+0xb8>
     4c6:	b9 cf       	rjmp	.-142    	; 0x43a <process_thread_etimer_process+0x2a>
     4c8:	ec 2c       	mov	r14, r12
     4ca:	fd 2c       	mov	r15, r13
     4cc:	01 c0       	rjmp	.+2      	; 0x4d0 <process_thread_etimer_process+0xc0>
     4ce:	ec 01       	movw	r28, r24
     4d0:	ce 01       	movw	r24, r28
     4d2:	23 d2       	rcall	.+1094   	; 0x91a <timer_expired>
     4d4:	89 2b       	or	r24, r25
     4d6:	e9 f0       	breq	.+58     	; 0x512 <process_thread_etimer_process+0x102>
     4d8:	ae 01       	movw	r20, r28
     4da:	68 e8       	ldi	r22, 0x88	; 136
     4dc:	8a 85       	ldd	r24, Y+10	; 0x0a
     4de:	9b 85       	ldd	r25, Y+11	; 0x0b
     4e0:	ae d1       	rcall	.+860    	; 0x83e <process_post>
     4e2:	89 2b       	or	r24, r25
     4e4:	a9 f4       	brne	.+42     	; 0x510 <process_thread_etimer_process+0x100>
     4e6:	1b 86       	std	Y+11, r1	; 0x0b
     4e8:	1a 86       	std	Y+10, r1	; 0x0a
     4ea:	e1 14       	cp	r14, r1
     4ec:	f1 04       	cpc	r15, r1
     4ee:	31 f0       	breq	.+12     	; 0x4fc <process_thread_etimer_process+0xec>
     4f0:	88 85       	ldd	r24, Y+8	; 0x08
     4f2:	99 85       	ldd	r25, Y+9	; 0x09
     4f4:	f7 01       	movw	r30, r14
     4f6:	91 87       	std	Z+9, r25	; 0x09
     4f8:	80 87       	std	Z+8, r24	; 0x08
     4fa:	06 c0       	rjmp	.+12     	; 0x508 <process_thread_etimer_process+0xf8>
     4fc:	88 85       	ldd	r24, Y+8	; 0x08
     4fe:	99 85       	ldd	r25, Y+9	; 0x09
     500:	90 93 e1 02 	sts	0x02E1, r25	; 0x8002e1 <timerlist+0x1>
     504:	80 93 e0 02 	sts	0x02E0, r24	; 0x8002e0 <timerlist>
     508:	19 86       	std	Y+9, r1	; 0x09
     50a:	18 86       	std	Y+8, r1	; 0x08
     50c:	1d df       	rcall	.-454    	; 0x348 <update_time>
     50e:	d5 cf       	rjmp	.-86     	; 0x4ba <process_thread_etimer_process+0xaa>
     510:	7b df       	rcall	.-266    	; 0x408 <etimer_request_poll>
     512:	88 85       	ldd	r24, Y+8	; 0x08
     514:	99 85       	ldd	r25, Y+9	; 0x09
     516:	7e 01       	movw	r14, r28
     518:	00 97       	sbiw	r24, 0x00	; 0
     51a:	c9 f6       	brne	.-78     	; 0x4ce <process_thread_etimer_process+0xbe>
     51c:	8e cf       	rjmp	.-228    	; 0x43a <process_thread_etimer_process+0x2a>
     51e:	f8 01       	movw	r30, r16
     520:	11 82       	std	Z+1, r1	; 0x01
     522:	10 82       	st	Z, r1
     524:	83 e0       	ldi	r24, 0x03	; 3
     526:	df 91       	pop	r29
     528:	cf 91       	pop	r28
     52a:	1f 91       	pop	r17
     52c:	0f 91       	pop	r16
     52e:	ff 90       	pop	r15
     530:	ef 90       	pop	r14
     532:	df 90       	pop	r13
     534:	cf 90       	pop	r12
     536:	08 95       	ret

00000538 <add_timer>:
     538:	cf 93       	push	r28
     53a:	df 93       	push	r29
     53c:	ec 01       	movw	r28, r24
     53e:	64 df       	rcall	.-312    	; 0x408 <etimer_request_poll>
     540:	8a 85       	ldd	r24, Y+10	; 0x0a
     542:	9b 85       	ldd	r25, Y+11	; 0x0b
     544:	89 2b       	or	r24, r25
     546:	d1 f0       	breq	.+52     	; 0x57c <add_timer+0x44>
     548:	e0 91 e0 02 	lds	r30, 0x02E0	; 0x8002e0 <timerlist>
     54c:	f0 91 e1 02 	lds	r31, 0x02E1	; 0x8002e1 <timerlist+0x1>
     550:	30 97       	sbiw	r30, 0x00	; 0
     552:	a1 f0       	breq	.+40     	; 0x57c <add_timer+0x44>
     554:	ce 17       	cp	r28, r30
     556:	df 07       	cpc	r29, r31
     558:	61 f4       	brne	.+24     	; 0x572 <add_timer+0x3a>
     55a:	03 c0       	rjmp	.+6      	; 0x562 <add_timer+0x2a>
     55c:	ce 17       	cp	r28, r30
     55e:	df 07       	cpc	r29, r31
     560:	41 f4       	brne	.+16     	; 0x572 <add_timer+0x3a>
     562:	80 91 86 03 	lds	r24, 0x0386	; 0x800386 <process_current>
     566:	90 91 87 03 	lds	r25, 0x0387	; 0x800387 <process_current+0x1>
     56a:	9b 87       	std	Y+11, r25	; 0x0b
     56c:	8a 87       	std	Y+10, r24	; 0x0a
     56e:	ec de       	rcall	.-552    	; 0x348 <update_time>
     570:	16 c0       	rjmp	.+44     	; 0x59e <add_timer+0x66>
     572:	00 84       	ldd	r0, Z+8	; 0x08
     574:	f1 85       	ldd	r31, Z+9	; 0x09
     576:	e0 2d       	mov	r30, r0
     578:	30 97       	sbiw	r30, 0x00	; 0
     57a:	81 f7       	brne	.-32     	; 0x55c <add_timer+0x24>
     57c:	80 91 86 03 	lds	r24, 0x0386	; 0x800386 <process_current>
     580:	90 91 87 03 	lds	r25, 0x0387	; 0x800387 <process_current+0x1>
     584:	9b 87       	std	Y+11, r25	; 0x0b
     586:	8a 87       	std	Y+10, r24	; 0x0a
     588:	80 91 e0 02 	lds	r24, 0x02E0	; 0x8002e0 <timerlist>
     58c:	90 91 e1 02 	lds	r25, 0x02E1	; 0x8002e1 <timerlist+0x1>
     590:	99 87       	std	Y+9, r25	; 0x09
     592:	88 87       	std	Y+8, r24	; 0x08
     594:	d0 93 e1 02 	sts	0x02E1, r29	; 0x8002e1 <timerlist+0x1>
     598:	c0 93 e0 02 	sts	0x02E0, r28	; 0x8002e0 <timerlist>
     59c:	d5 de       	rcall	.-598    	; 0x348 <update_time>
     59e:	df 91       	pop	r29
     5a0:	cf 91       	pop	r28
     5a2:	08 95       	ret

000005a4 <etimer_set>:
     5a4:	cf 93       	push	r28
     5a6:	df 93       	push	r29
     5a8:	ec 01       	movw	r28, r24
     5aa:	a8 d1       	rcall	.+848    	; 0x8fc <timer_set>
     5ac:	ce 01       	movw	r24, r28
     5ae:	c4 df       	rcall	.-120    	; 0x538 <add_timer>
     5b0:	df 91       	pop	r29
     5b2:	cf 91       	pop	r28
     5b4:	08 95       	ret

000005b6 <etimer_pending>:
/*---------------------------------------------------------------------------*/
int
etimer_pending(void)
{
  return timerlist != NULL;
     5b6:	81 e0       	ldi	r24, 0x01	; 1
     5b8:	90 e0       	ldi	r25, 0x00	; 0
     5ba:	20 91 e0 02 	lds	r18, 0x02E0	; 0x8002e0 <timerlist>
     5be:	30 91 e1 02 	lds	r19, 0x02E1	; 0x8002e1 <timerlist+0x1>
     5c2:	23 2b       	or	r18, r19
     5c4:	11 f4       	brne	.+4      	; 0x5ca <etimer_pending+0x14>
     5c6:	80 e0       	ldi	r24, 0x00	; 0
     5c8:	90 e0       	ldi	r25, 0x00	; 0
}
     5ca:	08 95       	ret

000005cc <exit_process>:
}
/*---------------------------------------------------------------------------*/
int process_nevents(void) // iþlem sayýsý sorgulama fonk.
{
    return nevents + poll_requested; // çalýþan iþlem sayýsý ve poll varsa +1 olarak sayýsý geri döndürülür
}
     5cc:	cf 92       	push	r12
     5ce:	df 92       	push	r13
     5d0:	ef 92       	push	r14
     5d2:	ff 92       	push	r15
     5d4:	0f 93       	push	r16
     5d6:	1f 93       	push	r17
     5d8:	cf 93       	push	r28
     5da:	df 93       	push	r29
     5dc:	00 91 86 03 	lds	r16, 0x0386	; 0x800386 <process_current>
     5e0:	10 91 87 03 	lds	r17, 0x0387	; 0x800387 <process_current+0x1>
     5e4:	e0 90 88 03 	lds	r14, 0x0388	; 0x800388 <process_list>
     5e8:	f0 90 89 03 	lds	r15, 0x0389	; 0x800389 <process_list+0x1>
     5ec:	e8 16       	cp	r14, r24
     5ee:	f9 06       	cpc	r15, r25
     5f0:	71 f0       	breq	.+28     	; 0x60e <exit_process+0x42>
     5f2:	e1 14       	cp	r14, r1
     5f4:	f1 04       	cpc	r15, r1
     5f6:	09 f4       	brne	.+2      	; 0x5fa <exit_process+0x2e>
     5f8:	5f c0       	rjmp	.+190    	; 0x6b8 <exit_process+0xec>
     5fa:	f7 01       	movw	r30, r14
     5fc:	01 90       	ld	r0, Z+
     5fe:	f0 81       	ld	r31, Z
     600:	e0 2d       	mov	r30, r0
     602:	8e 17       	cp	r24, r30
     604:	9f 07       	cpc	r25, r31
     606:	21 f0       	breq	.+8      	; 0x610 <exit_process+0x44>
     608:	30 97       	sbiw	r30, 0x00	; 0
     60a:	c1 f7       	brne	.-16     	; 0x5fc <exit_process+0x30>
     60c:	55 c0       	rjmp	.+170    	; 0x6b8 <exit_process+0xec>
     60e:	fc 01       	movw	r30, r24
     610:	ef 2b       	or	r30, r31
     612:	09 f4       	brne	.+2      	; 0x616 <exit_process+0x4a>
     614:	51 c0       	rjmp	.+162    	; 0x6b8 <exit_process+0xec>
     616:	6b 01       	movw	r12, r22
     618:	ec 01       	movw	r28, r24
     61a:	88 85       	ldd	r24, Y+8	; 0x08
     61c:	88 23       	and	r24, r24
     61e:	11 f1       	breq	.+68     	; 0x664 <exit_process+0x98>
     620:	18 86       	std	Y+8, r1	; 0x08
     622:	e1 14       	cp	r14, r1
     624:	f1 04       	cpc	r15, r1
     626:	69 f0       	breq	.+26     	; 0x642 <exit_process+0x76>
     628:	ce 15       	cp	r28, r14
     62a:	df 05       	cpc	r29, r15
     62c:	21 f0       	breq	.+8      	; 0x636 <exit_process+0x6a>
     62e:	ae 01       	movw	r20, r28
     630:	67 e8       	ldi	r22, 0x87	; 135
     632:	c7 01       	movw	r24, r14
     634:	4a d0       	rcall	.+148    	; 0x6ca <call_process>
     636:	f7 01       	movw	r30, r14
     638:	e0 80       	ld	r14, Z
     63a:	f1 80       	ldd	r15, Z+1	; 0x01
     63c:	e1 14       	cp	r14, r1
     63e:	f1 04       	cpc	r15, r1
     640:	99 f7       	brne	.-26     	; 0x628 <exit_process+0x5c>
     642:	ec 81       	ldd	r30, Y+4	; 0x04
     644:	fd 81       	ldd	r31, Y+5	; 0x05
     646:	30 97       	sbiw	r30, 0x00	; 0
     648:	69 f0       	breq	.+26     	; 0x664 <exit_process+0x98>
     64a:	cc 15       	cp	r28, r12
     64c:	dd 05       	cpc	r29, r13
     64e:	51 f0       	breq	.+20     	; 0x664 <exit_process+0x98>
     650:	d0 93 87 03 	sts	0x0387, r29	; 0x800387 <process_current+0x1>
     654:	c0 93 86 03 	sts	0x0386, r28	; 0x800386 <process_current>
     658:	40 e0       	ldi	r20, 0x00	; 0
     65a:	50 e0       	ldi	r21, 0x00	; 0
     65c:	63 e8       	ldi	r22, 0x83	; 131
     65e:	ce 01       	movw	r24, r28
     660:	06 96       	adiw	r24, 0x06	; 6
     662:	09 95       	icall
     664:	a0 91 88 03 	lds	r26, 0x0388	; 0x800388 <process_list>
     668:	b0 91 89 03 	lds	r27, 0x0389	; 0x800389 <process_list+0x1>
     66c:	ca 17       	cp	r28, r26
     66e:	db 07       	cpc	r29, r27
     670:	b1 f4       	brne	.+44     	; 0x69e <exit_process+0xd2>
     672:	88 81       	ld	r24, Y
     674:	99 81       	ldd	r25, Y+1	; 0x01
     676:	90 93 89 03 	sts	0x0389, r25	; 0x800389 <process_list+0x1>
     67a:	80 93 88 03 	sts	0x0388, r24	; 0x800388 <process_list>
     67e:	18 c0       	rjmp	.+48     	; 0x6b0 <exit_process+0xe4>
     680:	80 81       	ld	r24, Z
     682:	91 81       	ldd	r25, Z+1	; 0x01
     684:	c8 17       	cp	r28, r24
     686:	d9 07       	cpc	r29, r25
     688:	29 f0       	breq	.+10     	; 0x694 <exit_process+0xc8>
     68a:	fc 01       	movw	r30, r24
     68c:	30 97       	sbiw	r30, 0x00	; 0
     68e:	c1 f7       	brne	.-16     	; 0x680 <exit_process+0xb4>
     690:	0f c0       	rjmp	.+30     	; 0x6b0 <exit_process+0xe4>
     692:	fd 01       	movw	r30, r26
     694:	88 81       	ld	r24, Y
     696:	99 81       	ldd	r25, Y+1	; 0x01
     698:	91 83       	std	Z+1, r25	; 0x01
     69a:	80 83       	st	Z, r24
     69c:	09 c0       	rjmp	.+18     	; 0x6b0 <exit_process+0xe4>
     69e:	10 97       	sbiw	r26, 0x00	; 0
     6a0:	39 f0       	breq	.+14     	; 0x6b0 <exit_process+0xe4>
     6a2:	ed 91       	ld	r30, X+
     6a4:	fc 91       	ld	r31, X
     6a6:	11 97       	sbiw	r26, 0x01	; 1
     6a8:	ce 17       	cp	r28, r30
     6aa:	df 07       	cpc	r29, r31
     6ac:	79 f7       	brne	.-34     	; 0x68c <exit_process+0xc0>
     6ae:	f1 cf       	rjmp	.-30     	; 0x692 <exit_process+0xc6>
     6b0:	10 93 87 03 	sts	0x0387, r17	; 0x800387 <process_current+0x1>
     6b4:	00 93 86 03 	sts	0x0386, r16	; 0x800386 <process_current>
     6b8:	df 91       	pop	r29
     6ba:	cf 91       	pop	r28
     6bc:	1f 91       	pop	r17
     6be:	0f 91       	pop	r16
     6c0:	ff 90       	pop	r15
     6c2:	ef 90       	pop	r14
     6c4:	df 90       	pop	r13
     6c6:	cf 90       	pop	r12
     6c8:	08 95       	ret

000006ca <call_process>:
     6ca:	1f 93       	push	r17
     6cc:	cf 93       	push	r28
     6ce:	df 93       	push	r29
     6d0:	dc 01       	movw	r26, r24
     6d2:	18 96       	adiw	r26, 0x08	; 8
     6d4:	2c 91       	ld	r18, X
     6d6:	18 97       	sbiw	r26, 0x08	; 8
     6d8:	20 ff       	sbrs	r18, 0
     6da:	1f c0       	rjmp	.+62     	; 0x71a <call_process+0x50>
     6dc:	14 96       	adiw	r26, 0x04	; 4
     6de:	ed 91       	ld	r30, X+
     6e0:	fc 91       	ld	r31, X
     6e2:	15 97       	sbiw	r26, 0x05	; 5
     6e4:	30 97       	sbiw	r30, 0x00	; 0
     6e6:	c9 f0       	breq	.+50     	; 0x71a <call_process+0x50>
     6e8:	16 2f       	mov	r17, r22
     6ea:	ec 01       	movw	r28, r24
     6ec:	90 93 87 03 	sts	0x0387, r25	; 0x800387 <process_current+0x1>
     6f0:	80 93 86 03 	sts	0x0386, r24	; 0x800386 <process_current>
     6f4:	82 e0       	ldi	r24, 0x02	; 2
     6f6:	88 87       	std	Y+8, r24	; 0x08
     6f8:	cd 01       	movw	r24, r26
     6fa:	06 96       	adiw	r24, 0x06	; 6
     6fc:	09 95       	icall
     6fe:	08 2e       	mov	r0, r24
     700:	00 0c       	add	r0, r0
     702:	99 0b       	sbc	r25, r25
     704:	02 97       	sbiw	r24, 0x02	; 2
     706:	02 97       	sbiw	r24, 0x02	; 2
     708:	10 f0       	brcs	.+4      	; 0x70e <call_process+0x44>
     70a:	13 38       	cpi	r17, 0x83	; 131
     70c:	21 f4       	brne	.+8      	; 0x716 <call_process+0x4c>
     70e:	be 01       	movw	r22, r28
     710:	ce 01       	movw	r24, r28
     712:	5c df       	rcall	.-328    	; 0x5cc <exit_process>
     714:	02 c0       	rjmp	.+4      	; 0x71a <call_process+0x50>
     716:	81 e0       	ldi	r24, 0x01	; 1
     718:	88 87       	std	Y+8, r24	; 0x08
     71a:	df 91       	pop	r29
     71c:	cf 91       	pop	r28
     71e:	1f 91       	pop	r17
     720:	08 95       	ret

00000722 <do_poll>:
     722:	1f 93       	push	r17
     724:	cf 93       	push	r28
     726:	df 93       	push	r29
     728:	10 92 e2 02 	sts	0x02E2, r1	; 0x8002e2 <poll_requested>
     72c:	c0 91 88 03 	lds	r28, 0x0388	; 0x800388 <process_list>
     730:	d0 91 89 03 	lds	r29, 0x0389	; 0x800389 <process_list+0x1>
     734:	20 97       	sbiw	r28, 0x00	; 0
     736:	81 f0       	breq	.+32     	; 0x758 <do_poll+0x36>
     738:	11 e0       	ldi	r17, 0x01	; 1
     73a:	89 85       	ldd	r24, Y+9	; 0x09
     73c:	88 23       	and	r24, r24
     73e:	39 f0       	breq	.+14     	; 0x74e <do_poll+0x2c>
     740:	18 87       	std	Y+8, r17	; 0x08
     742:	19 86       	std	Y+9, r1	; 0x09
     744:	40 e0       	ldi	r20, 0x00	; 0
     746:	50 e0       	ldi	r21, 0x00	; 0
     748:	62 e8       	ldi	r22, 0x82	; 130
     74a:	ce 01       	movw	r24, r28
     74c:	be df       	rcall	.-132    	; 0x6ca <call_process>
     74e:	09 90       	ld	r0, Y+
     750:	d8 81       	ld	r29, Y
     752:	c0 2d       	mov	r28, r0
     754:	20 97       	sbiw	r28, 0x00	; 0
     756:	89 f7       	brne	.-30     	; 0x73a <do_poll+0x18>
     758:	df 91       	pop	r29
     75a:	cf 91       	pop	r28
     75c:	1f 91       	pop	r17
     75e:	08 95       	ret

00000760 <process_init>:
     760:	8a e8       	ldi	r24, 0x8A	; 138
     762:	80 93 85 03 	sts	0x0385, r24	; 0x800385 <lastevent>
     766:	10 92 83 03 	sts	0x0383, r1	; 0x800383 <fevent>
     76a:	10 92 84 03 	sts	0x0384, r1	; 0x800384 <nevents>
     76e:	10 92 89 03 	sts	0x0389, r1	; 0x800389 <process_list+0x1>
     772:	10 92 88 03 	sts	0x0388, r1	; 0x800388 <process_list>
     776:	10 92 87 03 	sts	0x0387, r1	; 0x800387 <process_current+0x1>
     77a:	10 92 86 03 	sts	0x0386, r1	; 0x800386 <process_current>
     77e:	08 95       	ret

00000780 <process_run>:
     780:	ff 92       	push	r15
     782:	0f 93       	push	r16
     784:	1f 93       	push	r17
     786:	cf 93       	push	r28
     788:	df 93       	push	r29
     78a:	80 91 e2 02 	lds	r24, 0x02E2	; 0x8002e2 <poll_requested>
     78e:	81 11       	cpse	r24, r1
     790:	c8 df       	rcall	.-112    	; 0x722 <do_poll>
     792:	90 91 84 03 	lds	r25, 0x0384	; 0x800384 <nevents>
     796:	99 23       	and	r25, r25
     798:	09 f4       	brne	.+2      	; 0x79c <process_run+0x1c>
     79a:	44 c0       	rjmp	.+136    	; 0x824 <process_run+0xa4>
     79c:	20 91 83 03 	lds	r18, 0x0383	; 0x800383 <fevent>
     7a0:	30 e0       	ldi	r19, 0x00	; 0
     7a2:	f9 01       	movw	r30, r18
     7a4:	ee 0f       	add	r30, r30
     7a6:	ff 1f       	adc	r31, r31
     7a8:	ee 0f       	add	r30, r30
     7aa:	ff 1f       	adc	r31, r31
     7ac:	e2 0f       	add	r30, r18
     7ae:	f3 1f       	adc	r31, r19
     7b0:	ed 51       	subi	r30, 0x1D	; 29
     7b2:	fd 4f       	sbci	r31, 0xFD	; 253
     7b4:	f0 80       	ld	r15, Z
     7b6:	c1 81       	ldd	r28, Z+1	; 0x01
     7b8:	d2 81       	ldd	r29, Z+2	; 0x02
     7ba:	03 80       	ldd	r0, Z+3	; 0x03
     7bc:	f4 81       	ldd	r31, Z+4	; 0x04
     7be:	e0 2d       	mov	r30, r0
     7c0:	2f 5f       	subi	r18, 0xFF	; 255
     7c2:	3f 4f       	sbci	r19, 0xFF	; 255
     7c4:	2f 71       	andi	r18, 0x1F	; 31
     7c6:	30 78       	andi	r19, 0x80	; 128
     7c8:	33 23       	and	r19, r19
     7ca:	34 f4       	brge	.+12     	; 0x7d8 <process_run+0x58>
     7cc:	21 50       	subi	r18, 0x01	; 1
     7ce:	31 09       	sbc	r19, r1
     7d0:	20 6e       	ori	r18, 0xE0	; 224
     7d2:	3f 6f       	ori	r19, 0xFF	; 255
     7d4:	2f 5f       	subi	r18, 0xFF	; 255
     7d6:	3f 4f       	sbci	r19, 0xFF	; 255
     7d8:	20 93 83 03 	sts	0x0383, r18	; 0x800383 <fevent>
     7dc:	91 50       	subi	r25, 0x01	; 1
     7de:	90 93 84 03 	sts	0x0384, r25	; 0x800384 <nevents>
     7e2:	30 97       	sbiw	r30, 0x00	; 0
     7e4:	b1 f4       	brne	.+44     	; 0x812 <process_run+0x92>
     7e6:	00 91 88 03 	lds	r16, 0x0388	; 0x800388 <process_list>
     7ea:	10 91 89 03 	lds	r17, 0x0389	; 0x800389 <process_list+0x1>
     7ee:	01 15       	cp	r16, r1
     7f0:	11 05       	cpc	r17, r1
     7f2:	c1 f0       	breq	.+48     	; 0x824 <process_run+0xa4>
     7f4:	80 91 e2 02 	lds	r24, 0x02E2	; 0x8002e2 <poll_requested>
     7f8:	81 11       	cpse	r24, r1
     7fa:	93 df       	rcall	.-218    	; 0x722 <do_poll>
     7fc:	ae 01       	movw	r20, r28
     7fe:	6f 2d       	mov	r22, r15
     800:	c8 01       	movw	r24, r16
     802:	63 df       	rcall	.-314    	; 0x6ca <call_process>
     804:	f8 01       	movw	r30, r16
     806:	00 81       	ld	r16, Z
     808:	11 81       	ldd	r17, Z+1	; 0x01
     80a:	01 15       	cp	r16, r1
     80c:	11 05       	cpc	r17, r1
     80e:	91 f7       	brne	.-28     	; 0x7f4 <process_run+0x74>
     810:	09 c0       	rjmp	.+18     	; 0x824 <process_run+0xa4>
     812:	81 e8       	ldi	r24, 0x81	; 129
     814:	f8 12       	cpse	r15, r24
     816:	02 c0       	rjmp	.+4      	; 0x81c <process_run+0x9c>
     818:	81 e0       	ldi	r24, 0x01	; 1
     81a:	80 87       	std	Z+8, r24	; 0x08
     81c:	ae 01       	movw	r20, r28
     81e:	6f 2d       	mov	r22, r15
     820:	cf 01       	movw	r24, r30
     822:	53 df       	rcall	.-346    	; 0x6ca <call_process>
     824:	80 91 e2 02 	lds	r24, 0x02E2	; 0x8002e2 <poll_requested>
     828:	20 91 84 03 	lds	r18, 0x0384	; 0x800384 <nevents>
     82c:	90 e0       	ldi	r25, 0x00	; 0
     82e:	82 0f       	add	r24, r18
     830:	91 1d       	adc	r25, r1
     832:	df 91       	pop	r29
     834:	cf 91       	pop	r28
     836:	1f 91       	pop	r17
     838:	0f 91       	pop	r16
     83a:	ff 90       	pop	r15
     83c:	08 95       	ret

0000083e <process_post>:
/*---------------------------------------------------------------------------*/
int process_post(struct process *p, process_event_t ev, process_data_t data) // olay gönderim fonk.
{
     83e:	9c 01       	movw	r18, r24
               PROCESS_NAME_STRING(PROCESS_CURRENT()), ev,
               p == PROCESS_BROADCAST? "<broadcast>": PROCESS_NAME_STRING(p), nevents);
    }
    //  eger sýradaki olay kuyruðunu max sayýya ulaþtýrdýysa ekrana bilgi verip çýkýlýr.
    // yapýlacak olay iþlemlerinde sayý sýnýrlamasý vardýr.
    if(nevents == PROCESS_CONF_NUMEVENTS)
     840:	90 91 84 03 	lds	r25, 0x0384	; 0x800384 <nevents>
     844:	90 32       	cpi	r25, 0x20	; 32
     846:	c9 f0       	breq	.+50     	; 0x87a <process_post+0x3c>
#endif /* DEBUG */
        return PROCESS_ERR_FULL;
    }
    // iþlem olay kuyruðuna giriliyor
    snum = (process_num_events_t)(fevent + nevents) % PROCESS_CONF_NUMEVENTS;
    events[snum].ev = ev;
     848:	e0 91 83 03 	lds	r30, 0x0383	; 0x800383 <fevent>
     84c:	e9 0f       	add	r30, r25
     84e:	ef 71       	andi	r30, 0x1F	; 31
     850:	f0 e0       	ldi	r31, 0x00	; 0
     852:	df 01       	movw	r26, r30
     854:	aa 0f       	add	r26, r26
     856:	bb 1f       	adc	r27, r27
     858:	aa 0f       	add	r26, r26
     85a:	bb 1f       	adc	r27, r27
     85c:	ea 0f       	add	r30, r26
     85e:	fb 1f       	adc	r31, r27
     860:	ed 51       	subi	r30, 0x1D	; 29
     862:	fd 4f       	sbci	r31, 0xFD	; 253
     864:	60 83       	st	Z, r22
    events[snum].data = data;
     866:	52 83       	std	Z+2, r21	; 0x02
     868:	41 83       	std	Z+1, r20	; 0x01
    events[snum].p = p;
     86a:	34 83       	std	Z+4, r19	; 0x04
     86c:	23 83       	std	Z+3, r18	; 0x03
    // liste arttýrýlýyor.
    ++nevents;
     86e:	9f 5f       	subi	r25, 0xFF	; 255
     870:	90 93 84 03 	sts	0x0384, r25	; 0x800384 <nevents>
    {
        process_maxevents = nevents;
    }
#endif /* PROCESS_CONF_STATS */

    return PROCESS_ERR_OK;
     874:	80 e0       	ldi	r24, 0x00	; 0
     876:	90 e0       	ldi	r25, 0x00	; 0
     878:	08 95       	ret
        else
        {
            printf("soft panic: event queue is full when event %d was posted to %s from %s\n", ev, PROCESS_NAME_STRING(p), PROCESS_NAME_STRING(process_current));
        }
#endif /* DEBUG */
        return PROCESS_ERR_FULL;
     87a:	81 e0       	ldi	r24, 0x01	; 1
     87c:	90 e0       	ldi	r25, 0x00	; 0
        process_maxevents = nevents;
    }
#endif /* PROCESS_CONF_STATS */

    return PROCESS_ERR_OK;
}
     87e:	08 95       	ret

00000880 <process_post_synch>:
/*---------------------------------------------------------------------------*/
void process_post_synch(struct process *p, process_event_t ev, process_data_t data)
{
     880:	cf 93       	push	r28
     882:	df 93       	push	r29
    struct process *caller = process_current; // temp bir structtanýmlanýyor
     884:	c0 91 86 03 	lds	r28, 0x0386	; 0x800386 <process_current>
     888:	d0 91 87 03 	lds	r29, 0x0387	; 0x800387 <process_current+0x1>
// yeni eklenen iþlem çalýþtýrýlýyor yada özel olarak tetikleniyor
    call_process(p, ev, data);
    // istenen iþlem çalýþtýrýldý artýk sistem listesinde kaldýðý iþten devam edebilir.
    process_current = caller;
     88c:	1e df       	rcall	.-452    	; 0x6ca <call_process>
     88e:	d0 93 87 03 	sts	0x0387, r29	; 0x800387 <process_current+0x1>
     892:	c0 93 86 03 	sts	0x0386, r28	; 0x800386 <process_current>
}
     896:	df 91       	pop	r29
     898:	cf 91       	pop	r28
     89a:	08 95       	ret

0000089c <process_start>:
{
    struct process *q; // temp bir struct açýlýr

    // çalýþtýrýlmak istenen iþlem, listede zaten çalýþýyor mu diye kontrol ediliryor
    // listenin sonunda NULL olacaðý için iþlem listesi bitince döngüden çýkar
    for(q = process_list; q != p && q != NULL; q = q->next);
     89c:	20 91 88 03 	lds	r18, 0x0388	; 0x800388 <process_list>
     8a0:	30 91 89 03 	lds	r19, 0x0389	; 0x800389 <process_list+0x1>
     8a4:	28 17       	cp	r18, r24
     8a6:	39 07       	cpc	r19, r25
     8a8:	e1 f0       	breq	.+56     	; 0x8e2 <process_start+0x46>
     8aa:	21 15       	cp	r18, r1
     8ac:	31 05       	cpc	r19, r1
     8ae:	49 f0       	breq	.+18     	; 0x8c2 <process_start+0x26>
     8b0:	f9 01       	movw	r30, r18
     8b2:	01 90       	ld	r0, Z+
     8b4:	f0 81       	ld	r31, Z
     8b6:	e0 2d       	mov	r30, r0
     8b8:	8e 17       	cp	r24, r30
     8ba:	9f 07       	cpc	r25, r31
     8bc:	91 f0       	breq	.+36     	; 0x8e2 <process_start+0x46>
     8be:	30 97       	sbiw	r30, 0x00	; 0
     8c0:	c1 f7       	brne	.-16     	; 0x8b2 <process_start+0x16>

    // eðer iþlem zaten çalýþýyorsa çýkar
    if(q == p)
     8c2:	00 97       	sbiw	r24, 0x00	; 0
     8c4:	71 f0       	breq	.+28     	; 0x8e2 <process_start+0x46>
     8c6:	ab 01       	movw	r20, r22
     8c8:	fc 01       	movw	r30, r24
    {
        return;
    }
    // p->next artýk listenin sonunu iþaret ediyor ve Null dur listenin en baþýndaki iþlem en sonuna baðlanýr.
    p->next = process_list;
     8ca:	31 83       	std	Z+1, r19	; 0x01
     8cc:	20 83       	st	Z, r18
    // boþa çýkan liste baþý iþlemi yerine yeni çalýþtýrýlacak iþlem yüklenir.
    process_list = p;
     8ce:	90 93 89 03 	sts	0x0389, r25	; 0x800389 <process_list+0x1>
     8d2:	80 93 88 03 	sts	0x0388, r24	; 0x800388 <process_list>
    // durumu koþar olarak deðiþtirilir.
    p->state = PROCESS_STATE_RUNNING;
     8d6:	21 e0       	ldi	r18, 0x01	; 1
     8d8:	20 87       	std	Z+8, r18	; 0x08
    // PT nin switch case deðeri sýfýrlanýr.
    PT_INIT(&p->pt);
     8da:	17 82       	std	Z+7, r1	; 0x07
     8dc:	16 82       	std	Z+6, r1	; 0x06
    PRINTF("process: starting '%s'\n", PROCESS_NAME_STRING(p));

    // artýk iþlem listeye eklendi çalýþtýrýlmasý için post edilmesi gerekiyor.
    // iþlemin eventine ilk defa çalýþtýðý için kurulacak bilgisi giriliyor.
    // iþlemin datasý aynen aktarýlýyor.
    process_post_synch(p, PROCESS_EVENT_INIT, data);
     8de:	61 e8       	ldi	r22, 0x81	; 129
     8e0:	cf cf       	rjmp	.-98     	; 0x880 <process_post_synch>
     8e2:	08 95       	ret

000008e4 <process_poll>:
    // istenen iþlem çalýþtýrýldý artýk sistem listesinde kaldýðý iþten devam edebilir.
    process_current = caller;
}
/*---------------------------------------------------------------------------*/
void process_poll(struct process *p) // girilen iþlemi poll çalýþtýrma fonk.önden çalýþtýrma modu gibi kullanýlýr.
{
     8e4:	fc 01       	movw	r30, r24
    if(p != NULL)   // girilen iþlem boþ deðiþse girer.
     8e6:	89 2b       	or	r24, r25
     8e8:	41 f0       	breq	.+16     	; 0x8fa <process_poll+0x16>
    {
        if(p->state == PROCESS_STATE_RUNNING ||
     8ea:	90 85       	ldd	r25, Z+8	; 0x08
     8ec:	91 50       	subi	r25, 0x01	; 1
     8ee:	92 30       	cpi	r25, 0x02	; 2
     8f0:	20 f4       	brcc	.+8      	; 0x8fa <process_poll+0x16>
                p->state == PROCESS_STATE_CALLED)
        {
            p->needspoll = 1; // iþleme poll komutu gir.
     8f2:	81 e0       	ldi	r24, 0x01	; 1
     8f4:	81 87       	std	Z+9, r24	; 0x09
            poll_requested = 1;// poll sorgusunu aç
     8f6:	80 93 e2 02 	sts	0x02E2, r24	; 0x8002e2 <poll_requested>
     8fa:	08 95       	ret

000008fc <timer_set>:
}
/*---------------------------------------------------------------------------*/
void timer_restart(struct timer *t)
{
  t->start = clock_time();
}
     8fc:	cf 93       	push	r28
     8fe:	df 93       	push	r29
     900:	ec 01       	movw	r28, r24
     902:	4c 83       	std	Y+4, r20	; 0x04
     904:	5d 83       	std	Y+5, r21	; 0x05
     906:	6e 83       	std	Y+6, r22	; 0x06
     908:	7f 83       	std	Y+7, r23	; 0x07
     90a:	15 dd       	rcall	.-1494   	; 0x336 <clock_time>
     90c:	68 83       	st	Y, r22
     90e:	79 83       	std	Y+1, r23	; 0x01
     910:	8a 83       	std	Y+2, r24	; 0x02
     912:	9b 83       	std	Y+3, r25	; 0x03
     914:	df 91       	pop	r29
     916:	cf 91       	pop	r28
     918:	08 95       	ret

0000091a <timer_expired>:
/*---------------------------------------------------------------------------*/
int timer_expired(struct timer *t)
{
     91a:	cf 92       	push	r12
     91c:	df 92       	push	r13
     91e:	ef 92       	push	r14
     920:	ff 92       	push	r15
     922:	cf 93       	push	r28
     924:	df 93       	push	r29
  /* Note: Can not return diff >= t->interval so we add 1 to diff and return
     t->interval < diff - required to avoid an internal error in mspgcc. */
  clock_time_t diff = (clock_time() - t->start) + 1;
     926:	ec 01       	movw	r28, r24
  return t->interval < diff;
     928:	06 dd       	rcall	.-1524   	; 0x336 <clock_time>
     92a:	c8 80       	ld	r12, Y
     92c:	d9 80       	ldd	r13, Y+1	; 0x01
     92e:	ea 80       	ldd	r14, Y+2	; 0x02
     930:	fb 80       	ldd	r15, Y+3	; 0x03
     932:	dc 01       	movw	r26, r24
     934:	cb 01       	movw	r24, r22
     936:	8c 19       	sub	r24, r12
     938:	9d 09       	sbc	r25, r13
     93a:	ae 09       	sbc	r26, r14
     93c:	bf 09       	sbc	r27, r15
     93e:	01 96       	adiw	r24, 0x01	; 1
     940:	a1 1d       	adc	r26, r1
     942:	b1 1d       	adc	r27, r1
     944:	21 e0       	ldi	r18, 0x01	; 1
     946:	30 e0       	ldi	r19, 0x00	; 0
     948:	cc 80       	ldd	r12, Y+4	; 0x04
     94a:	dd 80       	ldd	r13, Y+5	; 0x05
     94c:	ee 80       	ldd	r14, Y+6	; 0x06
     94e:	ff 80       	ldd	r15, Y+7	; 0x07
     950:	c8 16       	cp	r12, r24
     952:	d9 06       	cpc	r13, r25
     954:	ea 06       	cpc	r14, r26
     956:	fb 06       	cpc	r15, r27
     958:	10 f0       	brcs	.+4      	; 0x95e <timer_expired+0x44>
     95a:	20 e0       	ldi	r18, 0x00	; 0

}
     95c:	30 e0       	ldi	r19, 0x00	; 0
     95e:	c9 01       	movw	r24, r18
     960:	df 91       	pop	r29
     962:	cf 91       	pop	r28
     964:	ff 90       	pop	r15
     966:	ef 90       	pop	r14
     968:	df 90       	pop	r13
     96a:	cf 90       	pop	r12
     96c:	08 95       	ret

0000096e <board_init>:
	/* Select direction and initial pin state */
	if (flags & IOPORT_DIR_OUTPUT) {
		if (flags & IOPORT_INIT_HIGH) {
			*((uint8_t *)port + 2) |= pin_mask;
		} else {
			*((uint8_t *)port + 2) &= ~pin_mask;
     96e:	88 b1       	in	r24, 0x08	; 8
     970:	8b 7f       	andi	r24, 0xFB	; 251
		}

		*((uint8_t *)port + 1) |= pin_mask;
     972:	97 b1       	in	r25, 0x07	; 7
     974:	94 60       	ori	r25, 0x04	; 4
	/* Select direction and initial pin state */
	if (flags & IOPORT_DIR_OUTPUT) {
		if (flags & IOPORT_INIT_HIGH) {
			*((uint8_t *)port + 2) |= pin_mask;
		} else {
			*((uint8_t *)port + 2) &= ~pin_mask;
     976:	2d 98       	cbi	0x05, 5	; 5
		}

		*((uint8_t *)port + 1) |= pin_mask;
     978:	25 9a       	sbi	0x04, 5	; 4
     97a:	2a b1       	in	r18, 0x0a	; 10
	/* Select direction and initial pin state */
	if (flags & IOPORT_DIR_OUTPUT) {
		if (flags & IOPORT_INIT_HIGH) {
			*((uint8_t *)port + 2) |= pin_mask;
		} else {
			*((uint8_t *)port + 2) &= ~pin_mask;
     97c:	3b b1       	in	r19, 0x0b	; 11
     97e:	33 7f       	andi	r19, 0xF3	; 243
     980:	3b b9       	out	0x0b, r19	; 11
		}

		*((uint8_t *)port + 1) |= pin_mask;
     982:	2c 60       	ori	r18, 0x0C	; 12
     984:	2a b9       	out	0x0a, r18	; 10
	} else {
		*((uint8_t *)port + 1) &= ~pin_mask;
     986:	9c 7f       	andi	r25, 0xFC	; 252
     988:	97 b9       	out	0x07, r25	; 7
		if (flags & IOPORT_PULL_UP) {
			*((uint8_t *)port + 2) |= pin_mask;
     98a:	83 60       	ori	r24, 0x03	; 3
     98c:	88 b9       	out	0x08, r24	; 8
     98e:	08 95       	ret

00000990 <adp_protocol_add_byte>:
	adp_interface_transceive_procotol((uint8_t*)&msg_format, data_length, rx_buf);
	
	/* Wait for response and return status */
	adp_wait_for_response(MSG_CONF_ACK, &ack, 1);
	return (ack == ADP_ACK_OK);
}
     990:	2f 92       	push	r2
     992:	3f 92       	push	r3
     994:	4f 92       	push	r4
     996:	5f 92       	push	r5
     998:	6f 92       	push	r6
     99a:	7f 92       	push	r7
     99c:	8f 92       	push	r8
     99e:	9f 92       	push	r9
     9a0:	af 92       	push	r10
     9a2:	bf 92       	push	r11
     9a4:	cf 92       	push	r12
     9a6:	df 92       	push	r13
     9a8:	ef 92       	push	r14
     9aa:	ff 92       	push	r15
     9ac:	0f 93       	push	r16
     9ae:	1f 93       	push	r17
     9b0:	cf 93       	push	r28
     9b2:	df 93       	push	r29
     9b4:	b8 2e       	mov	r11, r24
     9b6:	69 01       	movw	r12, r18
     9b8:	44 23       	and	r20, r20
     9ba:	09 f4       	brne	.+2      	; 0x9be <adp_protocol_add_byte+0x2e>
     9bc:	b9 c0       	rjmp	.+370    	; 0xb30 <adp_protocol_add_byte+0x1a0>
     9be:	50 90 8e 03 	lds	r5, 0x038E	; 0x80038e <prev_data>
     9c2:	e0 90 8c 03 	lds	r14, 0x038C	; 0x80038c <length_received>
     9c6:	f0 90 8d 03 	lds	r15, 0x038D	; 0x80038d <length_received+0x1>
     9ca:	90 91 8b 03 	lds	r25, 0x038B	; 0x80038b <rx_state>
     9ce:	90 90 8a 03 	lds	r9, 0x038A	; 0x80038a <message_id.3484>
     9d2:	e0 91 8f 03 	lds	r30, 0x038F	; 0x80038f <bytes_received>
     9d6:	f0 91 90 03 	lds	r31, 0x0390	; 0x800390 <bytes_received+0x1>
     9da:	20 91 91 03 	lds	r18, 0x0391	; 0x800391 <packet_received>
     9de:	c0 91 3d 01 	lds	r28, 0x013D	; 0x80013d <last_received_message_id>
     9e2:	db 01       	movw	r26, r22
     9e4:	41 50       	subi	r20, 0x01	; 1
     9e6:	50 e0       	ldi	r21, 0x00	; 0
     9e8:	4f 5f       	subi	r20, 0xFF	; 255
     9ea:	5f 4f       	sbci	r21, 0xFF	; 255
     9ec:	64 0f       	add	r22, r20
     9ee:	75 1f       	adc	r23, r21
     9f0:	61 2c       	mov	r6, r1
     9f2:	31 2c       	mov	r3, r1
     9f4:	41 2c       	mov	r4, r1
     9f6:	21 2c       	mov	r2, r1
     9f8:	d0 e0       	ldi	r29, 0x00	; 0
     9fa:	a1 2c       	mov	r10, r1
     9fc:	10 e0       	ldi	r17, 0x00	; 0
     9fe:	31 e0       	ldi	r19, 0x01	; 1
     a00:	71 2c       	mov	r7, r1
     a02:	50 e0       	ldi	r21, 0x00	; 0
     a04:	68 94       	set
     a06:	88 24       	eor	r8, r8
     a08:	82 f8       	bld	r8, 2
     a0a:	45 2d       	mov	r20, r5
     a0c:	8d 91       	ld	r24, X+
     a0e:	95 30       	cpi	r25, 0x05	; 5
     a10:	09 f0       	breq	.+2      	; 0xa14 <adp_protocol_add_byte+0x84>
     a12:	90 c0       	rjmp	.+288    	; 0xb34 <adp_protocol_add_byte+0x1a4>
     a14:	8f 3f       	cpi	r24, 0xFF	; 255
     a16:	b9 f4       	brne	.+46     	; 0xa46 <adp_protocol_add_byte+0xb6>
     a18:	3b c0       	rjmp	.+118    	; 0xa90 <adp_protocol_add_byte+0x100>
     a1a:	8f 3f       	cpi	r24, 0xFF	; 255
     a1c:	09 f0       	breq	.+2      	; 0xa20 <adp_protocol_add_byte+0x90>
     a1e:	a8 c0       	rjmp	.+336    	; 0xb70 <adp_protocol_add_byte+0x1e0>
     a20:	c8 2f       	mov	r28, r24
     a22:	d3 2f       	mov	r29, r19
     a24:	a3 2e       	mov	r10, r19
     a26:	25 2f       	mov	r18, r21
     a28:	13 2f       	mov	r17, r19
     a2a:	93 2f       	mov	r25, r19
     a2c:	3a c0       	rjmp	.+116    	; 0xaa2 <adp_protocol_add_byte+0x112>
     a2e:	8f 3f       	cpi	r24, 0xFF	; 255
     a30:	c1 f1       	breq	.+112    	; 0xaa2 <adp_protocol_add_byte+0x112>
     a32:	98 2e       	mov	r9, r24
     a34:	23 2e       	mov	r2, r19
     a36:	13 2f       	mov	r17, r19
     a38:	92 e0       	ldi	r25, 0x02	; 2
     a3a:	33 c0       	rjmp	.+102    	; 0xaa2 <adp_protocol_add_byte+0x112>
     a3c:	8f 3f       	cpi	r24, 0xFF	; 255
     a3e:	19 f4       	brne	.+6      	; 0xa46 <adp_protocol_add_byte+0xb6>
     a40:	4f 3f       	cpi	r20, 0xFF	; 255
     a42:	09 f0       	breq	.+2      	; 0xa46 <adp_protocol_add_byte+0xb6>
     a44:	9a c0       	rjmp	.+308    	; 0xb7a <adp_protocol_add_byte+0x1ea>
     a46:	e8 2e       	mov	r14, r24
     a48:	f1 2c       	mov	r15, r1
     a4a:	33 2e       	mov	r3, r19
     a4c:	43 2e       	mov	r4, r19
     a4e:	45 2f       	mov	r20, r21
     a50:	13 2f       	mov	r17, r19
     a52:	93 e0       	ldi	r25, 0x03	; 3
     a54:	26 c0       	rjmp	.+76     	; 0xaa2 <adp_protocol_add_byte+0x112>
     a56:	8f 3f       	cpi	r24, 0xFF	; 255
     a58:	19 f4       	brne	.+6      	; 0xa60 <adp_protocol_add_byte+0xd0>
     a5a:	4f 3f       	cpi	r20, 0xFF	; 255
     a5c:	09 f0       	breq	.+2      	; 0xa60 <adp_protocol_add_byte+0xd0>
     a5e:	90 c0       	rjmp	.+288    	; 0xb80 <adp_protocol_add_byte+0x1f0>
     a60:	90 e0       	ldi	r25, 0x00	; 0
     a62:	98 2f       	mov	r25, r24
     a64:	88 27       	eor	r24, r24
     a66:	e8 0e       	add	r14, r24
     a68:	f9 1e       	adc	r15, r25
     a6a:	e1 14       	cp	r14, r1
     a6c:	f1 04       	cpc	r15, r1
     a6e:	09 f0       	breq	.+2      	; 0xa72 <adp_protocol_add_byte+0xe2>
     a70:	8a c0       	rjmp	.+276    	; 0xb86 <adp_protocol_add_byte+0x1f6>
     a72:	c9 2d       	mov	r28, r9
     a74:	33 2e       	mov	r3, r19
     a76:	43 2e       	mov	r4, r19
     a78:	45 2f       	mov	r20, r21
     a7a:	d3 2f       	mov	r29, r19
     a7c:	a3 2e       	mov	r10, r19
     a7e:	23 2f       	mov	r18, r19
     a80:	13 2f       	mov	r17, r19
     a82:	95 2f       	mov	r25, r21
     a84:	0e c0       	rjmp	.+28     	; 0xaa2 <adp_protocol_add_byte+0x112>
     a86:	8f 3f       	cpi	r24, 0xFF	; 255
     a88:	19 f4       	brne	.+6      	; 0xa90 <adp_protocol_add_byte+0x100>
     a8a:	94 30       	cpi	r25, 0x04	; 4
     a8c:	09 f4       	brne	.+2      	; 0xa90 <adp_protocol_add_byte+0x100>
     a8e:	84 c0       	rjmp	.+264    	; 0xb98 <adp_protocol_add_byte+0x208>
     a90:	8f 01       	movw	r16, r30
     a92:	0f 5f       	subi	r16, 0xFF	; 255
     a94:	1f 4f       	sbci	r17, 0xFF	; 255
     a96:	0e 15       	cp	r16, r14
     a98:	1f 05       	cpc	r17, r15
     a9a:	09 f4       	brne	.+2      	; 0xa9e <adp_protocol_add_byte+0x10e>
     a9c:	5d c0       	rjmp	.+186    	; 0xb58 <adp_protocol_add_byte+0x1c8>
     a9e:	98 2d       	mov	r25, r8
     aa0:	60 c0       	rjmp	.+192    	; 0xb62 <adp_protocol_add_byte+0x1d2>
     aa2:	30 97       	sbiw	r30, 0x00	; 0
     aa4:	19 f1       	breq	.+70     	; 0xaec <adp_protocol_add_byte+0x15c>
     aa6:	83 2f       	mov	r24, r19
     aa8:	bc 12       	cpse	r11, r28
     aaa:	85 2f       	mov	r24, r21
     aac:	82 23       	and	r24, r18
     aae:	f1 f0       	breq	.+60     	; 0xaec <adp_protocol_add_byte+0x15c>
     ab0:	54 2e       	mov	r5, r20
     ab2:	11 11       	cpse	r17, r1
     ab4:	90 93 8b 03 	sts	0x038B, r25	; 0x80038b <rx_state>
     ab8:	a1 10       	cpse	r10, r1
     aba:	20 93 91 03 	sts	0x0391, r18	; 0x800391 <packet_received>
     abe:	d1 11       	cpse	r29, r1
     ac0:	c0 93 3d 01 	sts	0x013D, r28	; 0x80013d <last_received_message_id>
     ac4:	21 10       	cpse	r2, r1
     ac6:	90 92 8a 03 	sts	0x038A, r9	; 0x80038a <message_id.3484>
     aca:	41 10       	cpse	r4, r1
     acc:	50 92 8e 03 	sts	0x038E, r5	; 0x80038e <prev_data>
     ad0:	33 20       	and	r3, r3
     ad2:	21 f0       	breq	.+8      	; 0xadc <adp_protocol_add_byte+0x14c>
     ad4:	f0 92 8d 03 	sts	0x038D, r15	; 0x80038d <length_received+0x1>
     ad8:	e0 92 8c 03 	sts	0x038C, r14	; 0x80038c <length_received>
     adc:	66 20       	and	r6, r6
     ade:	09 f4       	brne	.+2      	; 0xae2 <adp_protocol_add_byte+0x152>
     ae0:	5e c0       	rjmp	.+188    	; 0xb9e <adp_protocol_add_byte+0x20e>
     ae2:	f0 93 90 03 	sts	0x0390, r31	; 0x800390 <bytes_received+0x1>
     ae6:	e0 93 8f 03 	sts	0x038F, r30	; 0x80038f <bytes_received>
     aea:	59 c0       	rjmp	.+178    	; 0xb9e <adp_protocol_add_byte+0x20e>
     aec:	a6 17       	cp	r26, r22
     aee:	b7 07       	cpc	r27, r23
     af0:	09 f0       	breq	.+2      	; 0xaf4 <adp_protocol_add_byte+0x164>
     af2:	8c cf       	rjmp	.-232    	; 0xa0c <adp_protocol_add_byte+0x7c>
     af4:	54 2e       	mov	r5, r20
     af6:	11 11       	cpse	r17, r1
     af8:	90 93 8b 03 	sts	0x038B, r25	; 0x80038b <rx_state>
     afc:	a1 10       	cpse	r10, r1
     afe:	20 93 91 03 	sts	0x0391, r18	; 0x800391 <packet_received>
     b02:	d1 11       	cpse	r29, r1
     b04:	c0 93 3d 01 	sts	0x013D, r28	; 0x80013d <last_received_message_id>
     b08:	21 10       	cpse	r2, r1
     b0a:	90 92 8a 03 	sts	0x038A, r9	; 0x80038a <message_id.3484>
     b0e:	41 10       	cpse	r4, r1
     b10:	50 92 8e 03 	sts	0x038E, r5	; 0x80038e <prev_data>
     b14:	33 20       	and	r3, r3
     b16:	21 f0       	breq	.+8      	; 0xb20 <adp_protocol_add_byte+0x190>
     b18:	f0 92 8d 03 	sts	0x038D, r15	; 0x80038d <length_received+0x1>
     b1c:	e0 92 8c 03 	sts	0x038C, r14	; 0x80038c <length_received>
     b20:	66 20       	and	r6, r6
     b22:	21 f0       	breq	.+8      	; 0xb2c <adp_protocol_add_byte+0x19c>
     b24:	f0 93 90 03 	sts	0x0390, r31	; 0x800390 <bytes_received+0x1>
     b28:	e0 93 8f 03 	sts	0x038F, r30	; 0x80038f <bytes_received>
     b2c:	80 e0       	ldi	r24, 0x00	; 0
     b2e:	37 c0       	rjmp	.+110    	; 0xb9e <adp_protocol_add_byte+0x20e>
     b30:	80 e0       	ldi	r24, 0x00	; 0
     b32:	35 c0       	rjmp	.+106    	; 0xb9e <adp_protocol_add_byte+0x20e>
     b34:	92 30       	cpi	r25, 0x02	; 2
     b36:	09 f4       	brne	.+2      	; 0xb3a <adp_protocol_add_byte+0x1aa>
     b38:	81 cf       	rjmp	.-254    	; 0xa3c <adp_protocol_add_byte+0xac>
     b3a:	38 f4       	brcc	.+14     	; 0xb4a <adp_protocol_add_byte+0x1ba>
     b3c:	99 23       	and	r25, r25
     b3e:	09 f4       	brne	.+2      	; 0xb42 <adp_protocol_add_byte+0x1b2>
     b40:	6c cf       	rjmp	.-296    	; 0xa1a <adp_protocol_add_byte+0x8a>
     b42:	91 30       	cpi	r25, 0x01	; 1
     b44:	09 f4       	brne	.+2      	; 0xb48 <adp_protocol_add_byte+0x1b8>
     b46:	73 cf       	rjmp	.-282    	; 0xa2e <adp_protocol_add_byte+0x9e>
     b48:	ac cf       	rjmp	.-168    	; 0xaa2 <adp_protocol_add_byte+0x112>
     b4a:	93 30       	cpi	r25, 0x03	; 3
     b4c:	09 f4       	brne	.+2      	; 0xb50 <adp_protocol_add_byte+0x1c0>
     b4e:	83 cf       	rjmp	.-250    	; 0xa56 <adp_protocol_add_byte+0xc6>
     b50:	96 30       	cpi	r25, 0x06	; 6
     b52:	08 f4       	brcc	.+2      	; 0xb56 <adp_protocol_add_byte+0x1c6>
     b54:	98 cf       	rjmp	.-208    	; 0xa86 <adp_protocol_add_byte+0xf6>
     b56:	a5 cf       	rjmp	.-182    	; 0xaa2 <adp_protocol_add_byte+0x112>
     b58:	c9 2d       	mov	r28, r9
     b5a:	d3 2f       	mov	r29, r19
     b5c:	a3 2e       	mov	r10, r19
     b5e:	23 2f       	mov	r18, r19
     b60:	95 2f       	mov	r25, r21
     b62:	ec 0d       	add	r30, r12
     b64:	fd 1d       	adc	r31, r13
     b66:	80 83       	st	Z, r24
     b68:	f8 01       	movw	r30, r16
     b6a:	63 2e       	mov	r6, r19
     b6c:	13 2f       	mov	r17, r19
     b6e:	99 cf       	rjmp	.-206    	; 0xaa2 <adp_protocol_add_byte+0x112>
     b70:	d3 2f       	mov	r29, r19
     b72:	cf ef       	ldi	r28, 0xFF	; 255
     b74:	a3 2e       	mov	r10, r19
     b76:	25 2f       	mov	r18, r21
     b78:	94 cf       	rjmp	.-216    	; 0xaa2 <adp_protocol_add_byte+0x112>
     b7a:	48 2f       	mov	r20, r24
     b7c:	43 2e       	mov	r4, r19
     b7e:	91 cf       	rjmp	.-222    	; 0xaa2 <adp_protocol_add_byte+0x112>
     b80:	48 2f       	mov	r20, r24
     b82:	43 2e       	mov	r4, r19
     b84:	8e cf       	rjmp	.-228    	; 0xaa2 <adp_protocol_add_byte+0x112>
     b86:	63 2e       	mov	r6, r19
     b88:	e0 e0       	ldi	r30, 0x00	; 0
     b8a:	f7 2d       	mov	r31, r7
     b8c:	33 2e       	mov	r3, r19
     b8e:	43 2e       	mov	r4, r19
     b90:	45 2f       	mov	r20, r21
     b92:	13 2f       	mov	r17, r19
     b94:	98 2d       	mov	r25, r8
     b96:	85 cf       	rjmp	.-246    	; 0xaa2 <adp_protocol_add_byte+0x112>
     b98:	13 2f       	mov	r17, r19
     b9a:	95 e0       	ldi	r25, 0x05	; 5
     b9c:	82 cf       	rjmp	.-252    	; 0xaa2 <adp_protocol_add_byte+0x112>
     b9e:	df 91       	pop	r29
     ba0:	cf 91       	pop	r28
     ba2:	1f 91       	pop	r17
     ba4:	0f 91       	pop	r16
     ba6:	ff 90       	pop	r15
     ba8:	ef 90       	pop	r14
     baa:	df 90       	pop	r13
     bac:	cf 90       	pop	r12
     bae:	bf 90       	pop	r11
     bb0:	af 90       	pop	r10
     bb2:	9f 90       	pop	r9
     bb4:	8f 90       	pop	r8
     bb6:	7f 90       	pop	r7
     bb8:	6f 90       	pop	r6
     bba:	5f 90       	pop	r5
     bbc:	4f 90       	pop	r4
     bbe:	3f 90       	pop	r3
     bc0:	2f 90       	pop	r2
     bc2:	08 95       	ret

00000bc4 <adp_wait_for_response>:
     bc4:	cf 92       	push	r12
     bc6:	df 92       	push	r13
     bc8:	ef 92       	push	r14
     bca:	ff 92       	push	r15
     bcc:	0f 93       	push	r16
     bce:	1f 93       	push	r17
     bd0:	cf 93       	push	r28
     bd2:	df 93       	push	r29
     bd4:	cd b7       	in	r28, 0x3d	; 61
     bd6:	de b7       	in	r29, 0x3e	; 62
     bd8:	ce 5f       	subi	r28, 0xFE	; 254
     bda:	d1 09       	sbc	r29, r1
     bdc:	0f b6       	in	r0, 0x3f	; 63
     bde:	f8 94       	cli
     be0:	de bf       	out	0x3e, r29	; 62
     be2:	0f be       	out	0x3f, r0	; 63
     be4:	cd bf       	out	0x3d, r28	; 61
     be6:	e8 2e       	mov	r14, r24
     be8:	6b 01       	movw	r12, r22
     bea:	fe 01       	movw	r30, r28
     bec:	31 96       	adiw	r30, 0x01	; 1
     bee:	8e ef       	ldi	r24, 0xFE	; 254
     bf0:	df 01       	movw	r26, r30
     bf2:	1d 92       	st	X+, r1
     bf4:	8a 95       	dec	r24
     bf6:	e9 f7       	brne	.-6      	; 0xbf2 <adp_wait_for_response+0x2e>
     bf8:	10 92 91 03 	sts	0x0391, r1	; 0x800391 <packet_received>
     bfc:	68 94       	set
     bfe:	ff 24       	eor	r15, r15
     c00:	f2 f8       	bld	r15, 2
     c02:	f4 0e       	add	r15, r20
     c04:	0f 2d       	mov	r16, r15
     c06:	10 e0       	ldi	r17, 0x00	; 0
     c08:	0d c0       	rjmp	.+26     	; 0xc24 <adp_wait_for_response+0x60>
     c0a:	b8 01       	movw	r22, r16
     c0c:	ce 01       	movw	r24, r28
     c0e:	01 96       	adiw	r24, 0x01	; 1
     c10:	78 d5       	rcall	.+2800   	; 0x1702 <adp_interface_read_response>
     c12:	81 11       	cpse	r24, r1
     c14:	07 c0       	rjmp	.+14     	; 0xc24 <adp_wait_for_response+0x60>
     c16:	96 01       	movw	r18, r12
     c18:	4f 2d       	mov	r20, r15
     c1a:	be 01       	movw	r22, r28
     c1c:	6f 5f       	subi	r22, 0xFF	; 255
     c1e:	7f 4f       	sbci	r23, 0xFF	; 255
     c20:	8e 2d       	mov	r24, r14
     c22:	b6 de       	rcall	.-660    	; 0x990 <adp_protocol_add_byte>
     c24:	80 91 8f 03 	lds	r24, 0x038F	; 0x80038f <bytes_received>
     c28:	90 91 90 03 	lds	r25, 0x0390	; 0x800390 <bytes_received+0x1>
     c2c:	89 2b       	or	r24, r25
     c2e:	69 f3       	breq	.-38     	; 0xc0a <adp_wait_for_response+0x46>
     c30:	80 91 91 03 	lds	r24, 0x0391	; 0x800391 <packet_received>
     c34:	88 23       	and	r24, r24
     c36:	49 f3       	breq	.-46     	; 0xc0a <adp_wait_for_response+0x46>
     c38:	c2 50       	subi	r28, 0x02	; 2
     c3a:	df 4f       	sbci	r29, 0xFF	; 255
     c3c:	0f b6       	in	r0, 0x3f	; 63
     c3e:	f8 94       	cli
     c40:	de bf       	out	0x3e, r29	; 62
     c42:	0f be       	out	0x3f, r0	; 63
     c44:	cd bf       	out	0x3d, r28	; 61
     c46:	df 91       	pop	r29
     c48:	cf 91       	pop	r28
     c4a:	1f 91       	pop	r17
     c4c:	0f 91       	pop	r16
     c4e:	ff 90       	pop	r15
     c50:	ef 90       	pop	r14
     c52:	df 90       	pop	r13
     c54:	cf 90       	pop	r12
     c56:	08 95       	ret

00000c58 <adp_request_handshake>:
     c58:	cf 92       	push	r12
     c5a:	df 92       	push	r13
     c5c:	ff 92       	push	r15
     c5e:	0f 93       	push	r16
     c60:	1f 93       	push	r17
     c62:	cf 93       	push	r28
     c64:	df 93       	push	r29
     c66:	cd b7       	in	r28, 0x3d	; 61
     c68:	de b7       	in	r29, 0x3e	; 62
     c6a:	c4 51       	subi	r28, 0x14	; 20
     c6c:	d3 40       	sbci	r29, 0x03	; 3
     c6e:	0f b6       	in	r0, 0x3f	; 63
     c70:	f8 94       	cli
     c72:	de bf       	out	0x3e, r29	; 62
     c74:	0f be       	out	0x3f, r0	; 63
     c76:	cd bf       	out	0x3d, r28	; 61
     c78:	6a 01       	movw	r12, r20
     c7a:	98 e0       	ldi	r25, 0x08	; 8
     c7c:	e1 e5       	ldi	r30, 0x51	; 81
     c7e:	f1 e0       	ldi	r31, 0x01	; 1
     c80:	de 01       	movw	r26, r28
     c82:	11 96       	adiw	r26, 0x01	; 1
     c84:	01 90       	ld	r0, Z+
     c86:	0d 92       	st	X+, r0
     c88:	9a 95       	dec	r25
     c8a:	e1 f7       	brne	.-8      	; 0xc84 <adp_request_handshake+0x2c>
     c8c:	ae 01       	movw	r20, r28
     c8e:	47 5f       	subi	r20, 0xF7	; 247
     c90:	5f 4f       	sbci	r21, 0xFF	; 255
     c92:	22 e0       	ldi	r18, 0x02	; 2
     c94:	31 e0       	ldi	r19, 0x01	; 1
     c96:	da 01       	movw	r26, r20
     c98:	f9 01       	movw	r30, r18
     c9a:	1d 92       	st	X+, r1
     c9c:	31 97       	sbiw	r30, 0x01	; 1
     c9e:	e9 f7       	brne	.-6      	; 0xc9a <adp_request_handshake+0x42>
     ca0:	9f ef       	ldi	r25, 0xFF	; 255
     ca2:	c5 5f       	subi	r28, 0xF5	; 245
     ca4:	de 4f       	sbci	r29, 0xFE	; 254
     ca6:	98 83       	st	Y, r25
     ca8:	cb 50       	subi	r28, 0x0B	; 11
     caa:	d1 40       	sbci	r29, 0x01	; 1
     cac:	c4 5f       	subi	r28, 0xF4	; 244
     cae:	de 4f       	sbci	r29, 0xFE	; 254
     cb0:	18 82       	st	Y, r1
     cb2:	cc 50       	subi	r28, 0x0C	; 12
     cb4:	d1 40       	sbci	r29, 0x01	; 1
     cb6:	2a e0       	ldi	r18, 0x0A	; 10
     cb8:	30 e0       	ldi	r19, 0x00	; 0
     cba:	c3 5f       	subi	r28, 0xF3	; 243
     cbc:	de 4f       	sbci	r29, 0xFE	; 254
     cbe:	39 83       	std	Y+1, r19	; 0x01
     cc0:	28 83       	st	Y, r18
     cc2:	cd 50       	subi	r28, 0x0D	; 13
     cc4:	d1 40       	sbci	r29, 0x01	; 1
     cc6:	98 e0       	ldi	r25, 0x08	; 8
     cc8:	fe 01       	movw	r30, r28
     cca:	31 96       	adiw	r30, 0x01	; 1
     ccc:	ad e0       	ldi	r26, 0x0D	; 13
     cce:	b2 e0       	ldi	r27, 0x02	; 2
     cd0:	ac 0f       	add	r26, r28
     cd2:	bd 1f       	adc	r27, r29
     cd4:	12 96       	adiw	r26, 0x02	; 2
     cd6:	01 90       	ld	r0, Z+
     cd8:	0d 92       	st	X+, r0
     cda:	9a 95       	dec	r25
     cdc:	e1 f7       	brne	.-8      	; 0xcd6 <adp_request_handshake+0x7e>
     cde:	c3 5f       	subi	r28, 0xF3	; 243
     ce0:	dd 4f       	sbci	r29, 0xFD	; 253
     ce2:	88 83       	st	Y, r24
     ce4:	cd 50       	subi	r28, 0x0D	; 13
     ce6:	d2 40       	sbci	r29, 0x02	; 2
     ce8:	c2 5f       	subi	r28, 0xF2	; 242
     cea:	dd 4f       	sbci	r29, 0xFD	; 253
     cec:	68 83       	st	Y, r22
     cee:	ce 50       	subi	r28, 0x0E	; 14
     cf0:	d2 40       	sbci	r29, 0x02	; 2
     cf2:	8a e0       	ldi	r24, 0x0A	; 10
     cf4:	fe 01       	movw	r30, r28
     cf6:	e3 5f       	subi	r30, 0xF3	; 243
     cf8:	fd 4f       	sbci	r31, 0xFD	; 253
     cfa:	ab e0       	ldi	r26, 0x0B	; 11
     cfc:	b1 e0       	ldi	r27, 0x01	; 1
     cfe:	ac 0f       	add	r26, r28
     d00:	bd 1f       	adc	r27, r29
     d02:	14 96       	adiw	r26, 0x04	; 4
     d04:	01 90       	ld	r0, Z+
     d06:	0d 92       	st	X+, r0
     d08:	8a 95       	dec	r24
     d0a:	e1 f7       	brne	.-8      	; 0xd04 <adp_request_handshake+0xac>
     d0c:	6e e0       	ldi	r22, 0x0E	; 14
     d0e:	70 e0       	ldi	r23, 0x00	; 0
     d10:	ce 01       	movw	r24, r28
     d12:	85 5f       	subi	r24, 0xF5	; 245
     d14:	9e 4f       	sbci	r25, 0xFE	; 254
     d16:	41 d5       	rcall	.+2690   	; 0x179a <adp_interface_transceive_procotol>
     d18:	fe 01       	movw	r30, r28
     d1a:	e9 5e       	subi	r30, 0xE9	; 233
     d1c:	fd 4f       	sbci	r31, 0xFD	; 253
     d1e:	8e ef       	ldi	r24, 0xFE	; 254
     d20:	df 01       	movw	r26, r30
     d22:	1d 92       	st	X+, r1
     d24:	8a 95       	dec	r24
     d26:	e9 f7       	brne	.-6      	; 0xd22 <adp_request_handshake+0xca>
     d28:	10 92 91 03 	sts	0x0391, r1	; 0x800391 <packet_received>
     d2c:	12 e3       	ldi	r17, 0x32	; 50
     d2e:	f1 2c       	mov	r15, r1
     d30:	01 e0       	ldi	r16, 0x01	; 1
     d32:	12 c0       	rjmp	.+36     	; 0xd58 <adp_request_handshake+0x100>
     d34:	65 e0       	ldi	r22, 0x05	; 5
     d36:	70 e0       	ldi	r23, 0x00	; 0
     d38:	ce 01       	movw	r24, r28
     d3a:	89 5e       	subi	r24, 0xE9	; 233
     d3c:	9d 4f       	sbci	r25, 0xFD	; 253
     d3e:	e1 d4       	rcall	.+2498   	; 0x1702 <adp_interface_read_response>
     d40:	81 11       	cpse	r24, r1
     d42:	09 c0       	rjmp	.+18     	; 0xd56 <adp_request_handshake+0xfe>
     d44:	96 01       	movw	r18, r12
     d46:	45 e0       	ldi	r20, 0x05	; 5
     d48:	be 01       	movw	r22, r28
     d4a:	69 5e       	subi	r22, 0xE9	; 233
     d4c:	7d 4f       	sbci	r23, 0xFD	; 253
     d4e:	80 e1       	ldi	r24, 0x10	; 16
     d50:	1f de       	rcall	.-962    	; 0x990 <adp_protocol_add_byte>
     d52:	81 11       	cpse	r24, r1
     d54:	12 c0       	rjmp	.+36     	; 0xd7a <adp_request_handshake+0x122>
     d56:	11 50       	subi	r17, 0x01	; 1
     d58:	80 91 8f 03 	lds	r24, 0x038F	; 0x80038f <bytes_received>
     d5c:	90 91 90 03 	lds	r25, 0x0390	; 0x800390 <bytes_received+0x1>
     d60:	89 2b       	or	r24, r25
     d62:	19 f0       	breq	.+6      	; 0xd6a <adp_request_handshake+0x112>
     d64:	90 91 91 03 	lds	r25, 0x0391	; 0x800391 <packet_received>
     d68:	01 c0       	rjmp	.+2      	; 0xd6c <adp_request_handshake+0x114>
     d6a:	9f 2d       	mov	r25, r15
     d6c:	80 2f       	mov	r24, r16
     d6e:	11 11       	cpse	r17, r1
     d70:	01 c0       	rjmp	.+2      	; 0xd74 <adp_request_handshake+0x11c>
     d72:	8f 2d       	mov	r24, r15
     d74:	98 17       	cp	r25, r24
     d76:	f0 f2       	brcs	.-68     	; 0xd34 <adp_request_handshake+0xdc>
     d78:	80 e0       	ldi	r24, 0x00	; 0
     d7a:	cc 5e       	subi	r28, 0xEC	; 236
     d7c:	dc 4f       	sbci	r29, 0xFC	; 252
     d7e:	0f b6       	in	r0, 0x3f	; 63
     d80:	f8 94       	cli
     d82:	de bf       	out	0x3e, r29	; 62
     d84:	0f be       	out	0x3f, r0	; 63
     d86:	cd bf       	out	0x3d, r28	; 61
     d88:	df 91       	pop	r29
     d8a:	cf 91       	pop	r28
     d8c:	1f 91       	pop	r17
     d8e:	0f 91       	pop	r16
     d90:	ff 90       	pop	r15
     d92:	df 90       	pop	r13
     d94:	cf 90       	pop	r12
     d96:	08 95       	ret

00000d98 <adp_add_send_byte>:
     d98:	0f 93       	push	r16
     d9a:	1f 93       	push	r17
     d9c:	cf 93       	push	r28
     d9e:	df 93       	push	r29
     da0:	ec 01       	movw	r28, r24
     da2:	21 15       	cp	r18, r1
     da4:	31 05       	cpc	r19, r1
     da6:	c9 f0       	breq	.+50     	; 0xdda <adp_add_send_byte+0x42>
     da8:	fa 01       	movw	r30, r20
     daa:	42 0f       	add	r20, r18
     dac:	53 1f       	adc	r21, r19
     dae:	2f ef       	ldi	r18, 0xFF	; 255
     db0:	8f 01       	movw	r16, r30
     db2:	90 81       	ld	r25, Z
     db4:	9f 3f       	cpi	r25, 0xFF	; 255
     db6:	31 f4       	brne	.+12     	; 0xdc4 <adp_add_send_byte+0x2c>
     db8:	ce 01       	movw	r24, r28
     dba:	86 0f       	add	r24, r22
     dbc:	91 1d       	adc	r25, r1
     dbe:	dc 01       	movw	r26, r24
     dc0:	2c 93       	st	X, r18
     dc2:	6f 5f       	subi	r22, 0xFF	; 255
     dc4:	d8 01       	movw	r26, r16
     dc6:	9c 91       	ld	r25, X
     dc8:	31 96       	adiw	r30, 0x01	; 1
     dca:	de 01       	movw	r26, r28
     dcc:	a6 0f       	add	r26, r22
     dce:	b1 1d       	adc	r27, r1
     dd0:	9c 93       	st	X, r25
     dd2:	6f 5f       	subi	r22, 0xFF	; 255
     dd4:	e4 17       	cp	r30, r20
     dd6:	f5 07       	cpc	r31, r21
     dd8:	59 f7       	brne	.-42     	; 0xdb0 <adp_add_send_byte+0x18>
     dda:	86 2f       	mov	r24, r22
     ddc:	90 e0       	ldi	r25, 0x00	; 0
     dde:	df 91       	pop	r29
     de0:	cf 91       	pop	r28
     de2:	1f 91       	pop	r17
     de4:	0f 91       	pop	r16
     de6:	08 95       	ret

00000de8 <adp_add_dashboard_element_common_send_byte>:
     de8:	0f 93       	push	r16
     dea:	1f 93       	push	r17
     dec:	cf 93       	push	r28
     dee:	df 93       	push	r29
     df0:	8c 01       	movw	r16, r24
     df2:	ea 01       	movw	r28, r20
     df4:	22 e0       	ldi	r18, 0x02	; 2
     df6:	30 e0       	ldi	r19, 0x00	; 0
     df8:	cf df       	rcall	.-98     	; 0xd98 <adp_add_send_byte>
     dfa:	ae 01       	movw	r20, r28
     dfc:	4e 5f       	subi	r20, 0xFE	; 254
     dfe:	5f 4f       	sbci	r21, 0xFF	; 255
     e00:	22 e0       	ldi	r18, 0x02	; 2
     e02:	30 e0       	ldi	r19, 0x00	; 0
     e04:	68 2f       	mov	r22, r24
     e06:	c8 01       	movw	r24, r16
     e08:	c7 df       	rcall	.-114    	; 0xd98 <adp_add_send_byte>
     e0a:	ae 01       	movw	r20, r28
     e0c:	4c 5f       	subi	r20, 0xFC	; 252
     e0e:	5f 4f       	sbci	r21, 0xFF	; 255
     e10:	21 e0       	ldi	r18, 0x01	; 1
     e12:	30 e0       	ldi	r19, 0x00	; 0
     e14:	68 2f       	mov	r22, r24
     e16:	c8 01       	movw	r24, r16
     e18:	bf df       	rcall	.-130    	; 0xd98 <adp_add_send_byte>
     e1a:	ae 01       	movw	r20, r28
     e1c:	4b 5f       	subi	r20, 0xFB	; 251
     e1e:	5f 4f       	sbci	r21, 0xFF	; 255
     e20:	22 e0       	ldi	r18, 0x02	; 2
     e22:	30 e0       	ldi	r19, 0x00	; 0
     e24:	68 2f       	mov	r22, r24
     e26:	c8 01       	movw	r24, r16
     e28:	b7 df       	rcall	.-146    	; 0xd98 <adp_add_send_byte>
     e2a:	ae 01       	movw	r20, r28
     e2c:	49 5f       	subi	r20, 0xF9	; 249
     e2e:	5f 4f       	sbci	r21, 0xFF	; 255
     e30:	22 e0       	ldi	r18, 0x02	; 2
     e32:	30 e0       	ldi	r19, 0x00	; 0
     e34:	68 2f       	mov	r22, r24
     e36:	c8 01       	movw	r24, r16
     e38:	af df       	rcall	.-162    	; 0xd98 <adp_add_send_byte>
     e3a:	ae 01       	movw	r20, r28
     e3c:	47 5f       	subi	r20, 0xF7	; 247
     e3e:	5f 4f       	sbci	r21, 0xFF	; 255
     e40:	22 e0       	ldi	r18, 0x02	; 2
     e42:	30 e0       	ldi	r19, 0x00	; 0
     e44:	68 2f       	mov	r22, r24
     e46:	c8 01       	movw	r24, r16
     e48:	a7 df       	rcall	.-178    	; 0xd98 <adp_add_send_byte>
     e4a:	ae 01       	movw	r20, r28
     e4c:	45 5f       	subi	r20, 0xF5	; 245
     e4e:	5f 4f       	sbci	r21, 0xFF	; 255
     e50:	22 e0       	ldi	r18, 0x02	; 2
     e52:	30 e0       	ldi	r19, 0x00	; 0
     e54:	68 2f       	mov	r22, r24
     e56:	c8 01       	movw	r24, r16
     e58:	9f df       	rcall	.-194    	; 0xd98 <adp_add_send_byte>
     e5a:	ae 01       	movw	r20, r28
     e5c:	43 5f       	subi	r20, 0xF3	; 243
     e5e:	5f 4f       	sbci	r21, 0xFF	; 255
     e60:	21 e0       	ldi	r18, 0x01	; 1
     e62:	30 e0       	ldi	r19, 0x00	; 0
     e64:	68 2f       	mov	r22, r24
     e66:	c8 01       	movw	r24, r16
     e68:	97 df       	rcall	.-210    	; 0xd98 <adp_add_send_byte>
     e6a:	df 91       	pop	r29
     e6c:	cf 91       	pop	r28
     e6e:	1f 91       	pop	r17
     e70:	0f 91       	pop	r16
     e72:	08 95       	ret

00000e74 <adp_wait_for_handshake>:
     e74:	cf 93       	push	r28
     e76:	df 93       	push	r29
     e78:	1f 92       	push	r1
     e7a:	cd b7       	in	r28, 0x3d	; 61
     e7c:	de b7       	in	r29, 0x3e	; 62
     e7e:	ae 01       	movw	r20, r28
     e80:	4f 5f       	subi	r20, 0xFF	; 255
     e82:	5f 4f       	sbci	r21, 0xFF	; 255
     e84:	60 e0       	ldi	r22, 0x00	; 0
     e86:	81 e0       	ldi	r24, 0x01	; 1
     e88:	e7 de       	rcall	.-562    	; 0xc58 <adp_request_handshake>
     e8a:	81 11       	cpse	r24, r1
     e8c:	02 c0       	rjmp	.+4      	; 0xe92 <adp_wait_for_handshake+0x1e>
     e8e:	82 e0       	ldi	r24, 0x02	; 2
     e90:	89 83       	std	Y+1, r24	; 0x01
     e92:	89 81       	ldd	r24, Y+1	; 0x01
     e94:	0f 90       	pop	r0
     e96:	df 91       	pop	r29
     e98:	cf 91       	pop	r28
     e9a:	08 95       	ret

00000e9c <adp_configure_stream>:
     e9c:	8f 92       	push	r8
     e9e:	9f 92       	push	r9
     ea0:	af 92       	push	r10
     ea2:	bf 92       	push	r11
     ea4:	cf 92       	push	r12
     ea6:	df 92       	push	r13
     ea8:	ef 92       	push	r14
     eaa:	ff 92       	push	r15
     eac:	0f 93       	push	r16
     eae:	1f 93       	push	r17
     eb0:	cf 93       	push	r28
     eb2:	df 93       	push	r29
     eb4:	cd b7       	in	r28, 0x3d	; 61
     eb6:	de b7       	in	r29, 0x3e	; 62
     eb8:	c5 50       	subi	r28, 0x05	; 5
     eba:	d2 40       	sbci	r29, 0x02	; 2
     ebc:	0f b6       	in	r0, 0x3f	; 63
     ebe:	f8 94       	cli
     ec0:	de bf       	out	0x3e, r29	; 62
     ec2:	0f be       	out	0x3f, r0	; 63
     ec4:	cd bf       	out	0x3d, r28	; 61
     ec6:	7c 01       	movw	r14, r24
     ec8:	5b 01       	movw	r10, r22
     eca:	4e 01       	movw	r8, r28
     ecc:	22 e0       	ldi	r18, 0x02	; 2
     ece:	82 0e       	add	r8, r18
     ed0:	91 1c       	adc	r9, r1
     ed2:	82 e0       	ldi	r24, 0x02	; 2
     ed4:	91 e0       	ldi	r25, 0x01	; 1
     ed6:	f4 01       	movw	r30, r8
     ed8:	9c 01       	movw	r18, r24
     eda:	11 92       	st	Z+, r1
     edc:	21 50       	subi	r18, 0x01	; 1
     ede:	30 40       	sbci	r19, 0x00	; 0
     ee0:	e1 f7       	brne	.-8      	; 0xeda <adp_configure_stream+0x3e>
     ee2:	fb 01       	movw	r30, r22
     ee4:	01 90       	ld	r0, Z+
     ee6:	00 20       	and	r0, r0
     ee8:	e9 f7       	brne	.-6      	; 0xee4 <adp_configure_stream+0x48>
     eea:	31 97       	sbiw	r30, 0x01	; 1
     eec:	8f 01       	movw	r16, r30
     eee:	06 1b       	sub	r16, r22
     ef0:	17 0b       	sbc	r17, r23
     ef2:	8f ef       	ldi	r24, 0xFF	; 255
     ef4:	cc 5f       	subi	r28, 0xFC	; 252
     ef6:	de 4f       	sbci	r29, 0xFE	; 254
     ef8:	88 83       	st	Y, r24
     efa:	c4 50       	subi	r28, 0x04	; 4
     efc:	d1 40       	sbci	r29, 0x01	; 1
     efe:	80 e2       	ldi	r24, 0x20	; 32
     f00:	cb 5f       	subi	r28, 0xFB	; 251
     f02:	de 4f       	sbci	r29, 0xFE	; 254
     f04:	88 83       	st	Y, r24
     f06:	c5 50       	subi	r28, 0x05	; 5
     f08:	d1 40       	sbci	r29, 0x01	; 1
     f0a:	c8 01       	movw	r24, r16
     f0c:	06 96       	adiw	r24, 0x06	; 6
     f0e:	ca 5f       	subi	r28, 0xFA	; 250
     f10:	de 4f       	sbci	r29, 0xFE	; 254
     f12:	99 83       	std	Y+1, r25	; 0x01
     f14:	88 83       	st	Y, r24
     f16:	c6 50       	subi	r28, 0x06	; 6
     f18:	d1 40       	sbci	r29, 0x01	; 1
     f1a:	68 94       	set
     f1c:	cc 24       	eor	r12, r12
     f1e:	c2 f8       	bld	r12, 2
     f20:	dd 24       	eor	r13, r13
     f22:	d3 94       	inc	r13
     f24:	cc 0e       	add	r12, r28
     f26:	dd 1e       	adc	r13, r29
     f28:	34 e0       	ldi	r19, 0x04	; 4
     f2a:	c3 0e       	add	r12, r19
     f2c:	d1 1c       	adc	r13, r1
     f2e:	22 e0       	ldi	r18, 0x02	; 2
     f30:	30 e0       	ldi	r19, 0x00	; 0
     f32:	a7 01       	movw	r20, r14
     f34:	60 e0       	ldi	r22, 0x00	; 0
     f36:	c6 01       	movw	r24, r12
     f38:	2f df       	rcall	.-418    	; 0xd98 <adp_add_send_byte>
     f3a:	a7 01       	movw	r20, r14
     f3c:	4e 5f       	subi	r20, 0xFE	; 254
     f3e:	5f 4f       	sbci	r21, 0xFF	; 255
     f40:	21 e0       	ldi	r18, 0x01	; 1
     f42:	30 e0       	ldi	r19, 0x00	; 0
     f44:	68 2f       	mov	r22, r24
     f46:	c6 01       	movw	r24, r12
     f48:	27 df       	rcall	.-434    	; 0xd98 <adp_add_send_byte>
     f4a:	a7 01       	movw	r20, r14
     f4c:	4d 5f       	subi	r20, 0xFD	; 253
     f4e:	5f 4f       	sbci	r21, 0xFF	; 255
     f50:	21 e0       	ldi	r18, 0x01	; 1
     f52:	30 e0       	ldi	r19, 0x00	; 0
     f54:	68 2f       	mov	r22, r24
     f56:	c6 01       	movw	r24, r12
     f58:	1f df       	rcall	.-450    	; 0xd98 <adp_add_send_byte>
     f5a:	a7 01       	movw	r20, r14
     f5c:	4c 5f       	subi	r20, 0xFC	; 252
     f5e:	5f 4f       	sbci	r21, 0xFF	; 255
     f60:	21 e0       	ldi	r18, 0x01	; 1
     f62:	30 e0       	ldi	r19, 0x00	; 0
     f64:	68 2f       	mov	r22, r24
     f66:	c6 01       	movw	r24, r12
     f68:	17 df       	rcall	.-466    	; 0xd98 <adp_add_send_byte>
     f6a:	98 01       	movw	r18, r16
     f6c:	2f 5f       	subi	r18, 0xFF	; 255
     f6e:	3f 4f       	sbci	r19, 0xFF	; 255
     f70:	a5 01       	movw	r20, r10
     f72:	68 2f       	mov	r22, r24
     f74:	c6 01       	movw	r24, r12
     f76:	10 df       	rcall	.-480    	; 0xd98 <adp_add_send_byte>
     f78:	bc 01       	movw	r22, r24
     f7a:	6c 5f       	subi	r22, 0xFC	; 252
     f7c:	7f 4f       	sbci	r23, 0xFF	; 255
     f7e:	a4 01       	movw	r20, r8
     f80:	ce 01       	movw	r24, r28
     f82:	8c 5f       	subi	r24, 0xFC	; 252
     f84:	9e 4f       	sbci	r25, 0xFE	; 254
     f86:	09 d4       	rcall	.+2066   	; 0x179a <adp_interface_transceive_procotol>
     f88:	41 e0       	ldi	r20, 0x01	; 1
     f8a:	be 01       	movw	r22, r28
     f8c:	6f 5f       	subi	r22, 0xFF	; 255
     f8e:	7f 4f       	sbci	r23, 0xFF	; 255
     f90:	80 e3       	ldi	r24, 0x30	; 48
     f92:	18 de       	rcall	.-976    	; 0xbc4 <adp_wait_for_response>
     f94:	81 e0       	ldi	r24, 0x01	; 1
     f96:	99 81       	ldd	r25, Y+1	; 0x01
     f98:	91 30       	cpi	r25, 0x01	; 1
     f9a:	09 f0       	breq	.+2      	; 0xf9e <adp_configure_stream+0x102>
     f9c:	80 e0       	ldi	r24, 0x00	; 0
     f9e:	cb 5f       	subi	r28, 0xFB	; 251
     fa0:	dd 4f       	sbci	r29, 0xFD	; 253
     fa2:	0f b6       	in	r0, 0x3f	; 63
     fa4:	f8 94       	cli
     fa6:	de bf       	out	0x3e, r29	; 62
     fa8:	0f be       	out	0x3f, r0	; 63
     faa:	cd bf       	out	0x3d, r28	; 61
     fac:	df 91       	pop	r29
     fae:	cf 91       	pop	r28
     fb0:	1f 91       	pop	r17
     fb2:	0f 91       	pop	r16
     fb4:	ff 90       	pop	r15
     fb6:	ef 90       	pop	r14
     fb8:	df 90       	pop	r13
     fba:	cf 90       	pop	r12
     fbc:	bf 90       	pop	r11
     fbe:	af 90       	pop	r10
     fc0:	9f 90       	pop	r9
     fc2:	8f 90       	pop	r8
     fc4:	08 95       	ret

00000fc6 <adp_configure_terminal>:
     fc6:	8f 92       	push	r8
     fc8:	9f 92       	push	r9
     fca:	af 92       	push	r10
     fcc:	bf 92       	push	r11
     fce:	cf 92       	push	r12
     fd0:	df 92       	push	r13
     fd2:	ef 92       	push	r14
     fd4:	ff 92       	push	r15
     fd6:	0f 93       	push	r16
     fd8:	1f 93       	push	r17
     fda:	cf 93       	push	r28
     fdc:	df 93       	push	r29
     fde:	cd b7       	in	r28, 0x3d	; 61
     fe0:	de b7       	in	r29, 0x3e	; 62
     fe2:	c5 50       	subi	r28, 0x05	; 5
     fe4:	d2 40       	sbci	r29, 0x02	; 2
     fe6:	0f b6       	in	r0, 0x3f	; 63
     fe8:	f8 94       	cli
     fea:	de bf       	out	0x3e, r29	; 62
     fec:	0f be       	out	0x3f, r0	; 63
     fee:	cd bf       	out	0x3d, r28	; 61
     ff0:	8c 01       	movw	r16, r24
     ff2:	5b 01       	movw	r10, r22
     ff4:	fb 01       	movw	r30, r22
     ff6:	01 90       	ld	r0, Z+
     ff8:	00 20       	and	r0, r0
     ffa:	e9 f7       	brne	.-6      	; 0xff6 <adp_configure_terminal+0x30>
     ffc:	31 97       	sbiw	r30, 0x01	; 1
     ffe:	4f 01       	movw	r8, r30
    1000:	86 1a       	sub	r8, r22
    1002:	97 0a       	sbc	r9, r23
    1004:	6e 01       	movw	r12, r28
    1006:	22 e0       	ldi	r18, 0x02	; 2
    1008:	c2 0e       	add	r12, r18
    100a:	d1 1c       	adc	r13, r1
    100c:	82 e0       	ldi	r24, 0x02	; 2
    100e:	91 e0       	ldi	r25, 0x01	; 1
    1010:	f6 01       	movw	r30, r12
    1012:	9c 01       	movw	r18, r24
    1014:	11 92       	st	Z+, r1
    1016:	21 50       	subi	r18, 0x01	; 1
    1018:	30 40       	sbci	r19, 0x00	; 0
    101a:	e1 f7       	brne	.-8      	; 0x1014 <adp_configure_terminal+0x4e>
    101c:	8f ef       	ldi	r24, 0xFF	; 255
    101e:	cc 5f       	subi	r28, 0xFC	; 252
    1020:	de 4f       	sbci	r29, 0xFE	; 254
    1022:	88 83       	st	Y, r24
    1024:	c4 50       	subi	r28, 0x04	; 4
    1026:	d1 40       	sbci	r29, 0x01	; 1
    1028:	86 e2       	ldi	r24, 0x26	; 38
    102a:	cb 5f       	subi	r28, 0xFB	; 251
    102c:	de 4f       	sbci	r29, 0xFE	; 254
    102e:	88 83       	st	Y, r24
    1030:	c5 50       	subi	r28, 0x05	; 5
    1032:	d1 40       	sbci	r29, 0x01	; 1
    1034:	c4 01       	movw	r24, r8
    1036:	0b 96       	adiw	r24, 0x0b	; 11
    1038:	ca 5f       	subi	r28, 0xFA	; 250
    103a:	de 4f       	sbci	r29, 0xFE	; 254
    103c:	99 83       	std	Y+1, r25	; 0x01
    103e:	88 83       	st	Y, r24
    1040:	c6 50       	subi	r28, 0x06	; 6
    1042:	d1 40       	sbci	r29, 0x01	; 1
    1044:	68 94       	set
    1046:	ee 24       	eor	r14, r14
    1048:	e2 f8       	bld	r14, 2
    104a:	ff 24       	eor	r15, r15
    104c:	f3 94       	inc	r15
    104e:	ec 0e       	add	r14, r28
    1050:	fd 1e       	adc	r15, r29
    1052:	34 e0       	ldi	r19, 0x04	; 4
    1054:	e3 0e       	add	r14, r19
    1056:	f1 1c       	adc	r15, r1
    1058:	22 e0       	ldi	r18, 0x02	; 2
    105a:	30 e0       	ldi	r19, 0x00	; 0
    105c:	a8 01       	movw	r20, r16
    105e:	60 e0       	ldi	r22, 0x00	; 0
    1060:	c7 01       	movw	r24, r14
    1062:	9a de       	rcall	.-716    	; 0xd98 <adp_add_send_byte>
    1064:	94 01       	movw	r18, r8
    1066:	2f 5f       	subi	r18, 0xFF	; 255
    1068:	3f 4f       	sbci	r19, 0xFF	; 255
    106a:	a5 01       	movw	r20, r10
    106c:	68 2f       	mov	r22, r24
    106e:	c7 01       	movw	r24, r14
    1070:	93 de       	rcall	.-730    	; 0xd98 <adp_add_send_byte>
    1072:	a8 01       	movw	r20, r16
    1074:	4e 5f       	subi	r20, 0xFE	; 254
    1076:	5f 4f       	sbci	r21, 0xFF	; 255
    1078:	29 e0       	ldi	r18, 0x09	; 9
    107a:	30 e0       	ldi	r19, 0x00	; 0
    107c:	68 2f       	mov	r22, r24
    107e:	c7 01       	movw	r24, r14
    1080:	8b de       	rcall	.-746    	; 0xd98 <adp_add_send_byte>
    1082:	bc 01       	movw	r22, r24
    1084:	6c 5f       	subi	r22, 0xFC	; 252
    1086:	7f 4f       	sbci	r23, 0xFF	; 255
    1088:	a6 01       	movw	r20, r12
    108a:	ce 01       	movw	r24, r28
    108c:	8c 5f       	subi	r24, 0xFC	; 252
    108e:	9e 4f       	sbci	r25, 0xFE	; 254
    1090:	84 d3       	rcall	.+1800   	; 0x179a <adp_interface_transceive_procotol>
    1092:	41 e0       	ldi	r20, 0x01	; 1
    1094:	be 01       	movw	r22, r28
    1096:	6f 5f       	subi	r22, 0xFF	; 255
    1098:	7f 4f       	sbci	r23, 0xFF	; 255
    109a:	80 e3       	ldi	r24, 0x30	; 48
    109c:	93 dd       	rcall	.-1242   	; 0xbc4 <adp_wait_for_response>
    109e:	81 e0       	ldi	r24, 0x01	; 1
    10a0:	99 81       	ldd	r25, Y+1	; 0x01
    10a2:	91 30       	cpi	r25, 0x01	; 1
    10a4:	09 f0       	breq	.+2      	; 0x10a8 <adp_configure_terminal+0xe2>
    10a6:	80 e0       	ldi	r24, 0x00	; 0
    10a8:	cb 5f       	subi	r28, 0xFB	; 251
    10aa:	dd 4f       	sbci	r29, 0xFD	; 253
    10ac:	0f b6       	in	r0, 0x3f	; 63
    10ae:	f8 94       	cli
    10b0:	de bf       	out	0x3e, r29	; 62
    10b2:	0f be       	out	0x3f, r0	; 63
    10b4:	cd bf       	out	0x3d, r28	; 61
    10b6:	df 91       	pop	r29
    10b8:	cf 91       	pop	r28
    10ba:	1f 91       	pop	r17
    10bc:	0f 91       	pop	r16
    10be:	ff 90       	pop	r15
    10c0:	ef 90       	pop	r14
    10c2:	df 90       	pop	r13
    10c4:	cf 90       	pop	r12
    10c6:	bf 90       	pop	r11
    10c8:	af 90       	pop	r10
    10ca:	9f 90       	pop	r9
    10cc:	8f 90       	pop	r8
    10ce:	08 95       	ret

000010d0 <adp_add_stream_to_terminal>:
    10d0:	8f 92       	push	r8
    10d2:	9f 92       	push	r9
    10d4:	af 92       	push	r10
    10d6:	bf 92       	push	r11
    10d8:	cf 92       	push	r12
    10da:	df 92       	push	r13
    10dc:	ef 92       	push	r14
    10de:	ff 92       	push	r15
    10e0:	0f 93       	push	r16
    10e2:	1f 93       	push	r17
    10e4:	cf 93       	push	r28
    10e6:	df 93       	push	r29
    10e8:	cd b7       	in	r28, 0x3d	; 61
    10ea:	de b7       	in	r29, 0x3e	; 62
    10ec:	c5 50       	subi	r28, 0x05	; 5
    10ee:	d2 40       	sbci	r29, 0x02	; 2
    10f0:	0f b6       	in	r0, 0x3f	; 63
    10f2:	f8 94       	cli
    10f4:	de bf       	out	0x3e, r29	; 62
    10f6:	0f be       	out	0x3f, r0	; 63
    10f8:	cd bf       	out	0x3d, r28	; 61
    10fa:	8c 01       	movw	r16, r24
    10fc:	5b 01       	movw	r10, r22
    10fe:	6e 01       	movw	r12, r28
    1100:	22 e0       	ldi	r18, 0x02	; 2
    1102:	c2 0e       	add	r12, r18
    1104:	d1 1c       	adc	r13, r1
    1106:	82 e0       	ldi	r24, 0x02	; 2
    1108:	91 e0       	ldi	r25, 0x01	; 1
    110a:	f6 01       	movw	r30, r12
    110c:	9c 01       	movw	r18, r24
    110e:	11 92       	st	Z+, r1
    1110:	21 50       	subi	r18, 0x01	; 1
    1112:	30 40       	sbci	r19, 0x00	; 0
    1114:	e1 f7       	brne	.-8      	; 0x110e <adp_add_stream_to_terminal+0x3e>
    1116:	fb 01       	movw	r30, r22
    1118:	01 90       	ld	r0, Z+
    111a:	00 20       	and	r0, r0
    111c:	e9 f7       	brne	.-6      	; 0x1118 <adp_add_stream_to_terminal+0x48>
    111e:	31 97       	sbiw	r30, 0x01	; 1
    1120:	4f 01       	movw	r8, r30
    1122:	86 1a       	sub	r8, r22
    1124:	97 0a       	sbc	r9, r23
    1126:	8f ef       	ldi	r24, 0xFF	; 255
    1128:	cc 5f       	subi	r28, 0xFC	; 252
    112a:	de 4f       	sbci	r29, 0xFE	; 254
    112c:	88 83       	st	Y, r24
    112e:	c4 50       	subi	r28, 0x04	; 4
    1130:	d1 40       	sbci	r29, 0x01	; 1
    1132:	87 e2       	ldi	r24, 0x27	; 39
    1134:	cb 5f       	subi	r28, 0xFB	; 251
    1136:	de 4f       	sbci	r29, 0xFE	; 254
    1138:	88 83       	st	Y, r24
    113a:	c5 50       	subi	r28, 0x05	; 5
    113c:	d1 40       	sbci	r29, 0x01	; 1
    113e:	c4 01       	movw	r24, r8
    1140:	0c 96       	adiw	r24, 0x0c	; 12
    1142:	ca 5f       	subi	r28, 0xFA	; 250
    1144:	de 4f       	sbci	r29, 0xFE	; 254
    1146:	99 83       	std	Y+1, r25	; 0x01
    1148:	88 83       	st	Y, r24
    114a:	c6 50       	subi	r28, 0x06	; 6
    114c:	d1 40       	sbci	r29, 0x01	; 1
    114e:	68 94       	set
    1150:	ee 24       	eor	r14, r14
    1152:	e2 f8       	bld	r14, 2
    1154:	ff 24       	eor	r15, r15
    1156:	f3 94       	inc	r15
    1158:	ec 0e       	add	r14, r28
    115a:	fd 1e       	adc	r15, r29
    115c:	34 e0       	ldi	r19, 0x04	; 4
    115e:	e3 0e       	add	r14, r19
    1160:	f1 1c       	adc	r15, r1
    1162:	22 e0       	ldi	r18, 0x02	; 2
    1164:	30 e0       	ldi	r19, 0x00	; 0
    1166:	a8 01       	movw	r20, r16
    1168:	60 e0       	ldi	r22, 0x00	; 0
    116a:	c7 01       	movw	r24, r14
    116c:	15 de       	rcall	.-982    	; 0xd98 <adp_add_send_byte>
    116e:	a8 01       	movw	r20, r16
    1170:	4e 5f       	subi	r20, 0xFE	; 254
    1172:	5f 4f       	sbci	r21, 0xFF	; 255
    1174:	22 e0       	ldi	r18, 0x02	; 2
    1176:	30 e0       	ldi	r19, 0x00	; 0
    1178:	68 2f       	mov	r22, r24
    117a:	c7 01       	movw	r24, r14
    117c:	0d de       	rcall	.-998    	; 0xd98 <adp_add_send_byte>
    117e:	a8 01       	movw	r20, r16
    1180:	4c 5f       	subi	r20, 0xFC	; 252
    1182:	5f 4f       	sbci	r21, 0xFF	; 255
    1184:	21 e0       	ldi	r18, 0x01	; 1
    1186:	30 e0       	ldi	r19, 0x00	; 0
    1188:	68 2f       	mov	r22, r24
    118a:	c7 01       	movw	r24, r14
    118c:	05 de       	rcall	.-1014   	; 0xd98 <adp_add_send_byte>
    118e:	a8 01       	movw	r20, r16
    1190:	4b 5f       	subi	r20, 0xFB	; 251
    1192:	5f 4f       	sbci	r21, 0xFF	; 255
    1194:	23 e0       	ldi	r18, 0x03	; 3
    1196:	30 e0       	ldi	r19, 0x00	; 0
    1198:	68 2f       	mov	r22, r24
    119a:	c7 01       	movw	r24, r14
    119c:	fd dd       	rcall	.-1030   	; 0xd98 <adp_add_send_byte>
    119e:	94 01       	movw	r18, r8
    11a0:	2f 5f       	subi	r18, 0xFF	; 255
    11a2:	3f 4f       	sbci	r19, 0xFF	; 255
    11a4:	a5 01       	movw	r20, r10
    11a6:	68 2f       	mov	r22, r24
    11a8:	c7 01       	movw	r24, r14
    11aa:	f6 dd       	rcall	.-1044   	; 0xd98 <adp_add_send_byte>
    11ac:	a8 01       	movw	r20, r16
    11ae:	48 5f       	subi	r20, 0xF8	; 248
    11b0:	5f 4f       	sbci	r21, 0xFF	; 255
    11b2:	23 e0       	ldi	r18, 0x03	; 3
    11b4:	30 e0       	ldi	r19, 0x00	; 0
    11b6:	68 2f       	mov	r22, r24
    11b8:	c7 01       	movw	r24, r14
    11ba:	ee dd       	rcall	.-1060   	; 0xd98 <adp_add_send_byte>
    11bc:	bc 01       	movw	r22, r24
    11be:	6c 5f       	subi	r22, 0xFC	; 252
    11c0:	7f 4f       	sbci	r23, 0xFF	; 255
    11c2:	a6 01       	movw	r20, r12
    11c4:	ce 01       	movw	r24, r28
    11c6:	8c 5f       	subi	r24, 0xFC	; 252
    11c8:	9e 4f       	sbci	r25, 0xFE	; 254
    11ca:	e7 d2       	rcall	.+1486   	; 0x179a <adp_interface_transceive_procotol>
    11cc:	41 e0       	ldi	r20, 0x01	; 1
    11ce:	be 01       	movw	r22, r28
    11d0:	6f 5f       	subi	r22, 0xFF	; 255
    11d2:	7f 4f       	sbci	r23, 0xFF	; 255
    11d4:	80 e3       	ldi	r24, 0x30	; 48
    11d6:	f6 dc       	rcall	.-1556   	; 0xbc4 <adp_wait_for_response>
    11d8:	81 e0       	ldi	r24, 0x01	; 1
    11da:	99 81       	ldd	r25, Y+1	; 0x01
    11dc:	91 30       	cpi	r25, 0x01	; 1
    11de:	09 f0       	breq	.+2      	; 0x11e2 <adp_add_stream_to_terminal+0x112>
    11e0:	80 e0       	ldi	r24, 0x00	; 0
    11e2:	cb 5f       	subi	r28, 0xFB	; 251
    11e4:	dd 4f       	sbci	r29, 0xFD	; 253
    11e6:	0f b6       	in	r0, 0x3f	; 63
    11e8:	f8 94       	cli
    11ea:	de bf       	out	0x3e, r29	; 62
    11ec:	0f be       	out	0x3f, r0	; 63
    11ee:	cd bf       	out	0x3d, r28	; 61
    11f0:	df 91       	pop	r29
    11f2:	cf 91       	pop	r28
    11f4:	1f 91       	pop	r17
    11f6:	0f 91       	pop	r16
    11f8:	ff 90       	pop	r15
    11fa:	ef 90       	pop	r14
    11fc:	df 90       	pop	r13
    11fe:	cf 90       	pop	r12
    1200:	bf 90       	pop	r11
    1202:	af 90       	pop	r10
    1204:	9f 90       	pop	r9
    1206:	8f 90       	pop	r8
    1208:	08 95       	ret

0000120a <adp_add_dashboard>:
    120a:	8f 92       	push	r8
    120c:	9f 92       	push	r9
    120e:	af 92       	push	r10
    1210:	bf 92       	push	r11
    1212:	cf 92       	push	r12
    1214:	df 92       	push	r13
    1216:	ef 92       	push	r14
    1218:	ff 92       	push	r15
    121a:	0f 93       	push	r16
    121c:	1f 93       	push	r17
    121e:	cf 93       	push	r28
    1220:	df 93       	push	r29
    1222:	cd b7       	in	r28, 0x3d	; 61
    1224:	de b7       	in	r29, 0x3e	; 62
    1226:	c5 50       	subi	r28, 0x05	; 5
    1228:	d2 40       	sbci	r29, 0x02	; 2
    122a:	0f b6       	in	r0, 0x3f	; 63
    122c:	f8 94       	cli
    122e:	de bf       	out	0x3e, r29	; 62
    1230:	0f be       	out	0x3f, r0	; 63
    1232:	cd bf       	out	0x3d, r28	; 61
    1234:	8c 01       	movw	r16, r24
    1236:	5b 01       	movw	r10, r22
    1238:	fb 01       	movw	r30, r22
    123a:	01 90       	ld	r0, Z+
    123c:	00 20       	and	r0, r0
    123e:	e9 f7       	brne	.-6      	; 0x123a <adp_add_dashboard+0x30>
    1240:	31 97       	sbiw	r30, 0x01	; 1
    1242:	4f 01       	movw	r8, r30
    1244:	86 1a       	sub	r8, r22
    1246:	97 0a       	sbc	r9, r23
    1248:	6e 01       	movw	r12, r28
    124a:	22 e0       	ldi	r18, 0x02	; 2
    124c:	c2 0e       	add	r12, r18
    124e:	d1 1c       	adc	r13, r1
    1250:	82 e0       	ldi	r24, 0x02	; 2
    1252:	91 e0       	ldi	r25, 0x01	; 1
    1254:	f6 01       	movw	r30, r12
    1256:	9c 01       	movw	r18, r24
    1258:	11 92       	st	Z+, r1
    125a:	21 50       	subi	r18, 0x01	; 1
    125c:	30 40       	sbci	r19, 0x00	; 0
    125e:	e1 f7       	brne	.-8      	; 0x1258 <adp_add_dashboard+0x4e>
    1260:	8f ef       	ldi	r24, 0xFF	; 255
    1262:	cc 5f       	subi	r28, 0xFC	; 252
    1264:	de 4f       	sbci	r29, 0xFE	; 254
    1266:	88 83       	st	Y, r24
    1268:	c4 50       	subi	r28, 0x04	; 4
    126a:	d1 40       	sbci	r29, 0x01	; 1
    126c:	8a e2       	ldi	r24, 0x2A	; 42
    126e:	cb 5f       	subi	r28, 0xFB	; 251
    1270:	de 4f       	sbci	r29, 0xFE	; 254
    1272:	88 83       	st	Y, r24
    1274:	c5 50       	subi	r28, 0x05	; 5
    1276:	d1 40       	sbci	r29, 0x01	; 1
    1278:	c4 01       	movw	r24, r8
    127a:	08 96       	adiw	r24, 0x08	; 8
    127c:	ca 5f       	subi	r28, 0xFA	; 250
    127e:	de 4f       	sbci	r29, 0xFE	; 254
    1280:	99 83       	std	Y+1, r25	; 0x01
    1282:	88 83       	st	Y, r24
    1284:	c6 50       	subi	r28, 0x06	; 6
    1286:	d1 40       	sbci	r29, 0x01	; 1
    1288:	68 94       	set
    128a:	ee 24       	eor	r14, r14
    128c:	e2 f8       	bld	r14, 2
    128e:	ff 24       	eor	r15, r15
    1290:	f3 94       	inc	r15
    1292:	ec 0e       	add	r14, r28
    1294:	fd 1e       	adc	r15, r29
    1296:	34 e0       	ldi	r19, 0x04	; 4
    1298:	e3 0e       	add	r14, r19
    129a:	f1 1c       	adc	r15, r1
    129c:	22 e0       	ldi	r18, 0x02	; 2
    129e:	30 e0       	ldi	r19, 0x00	; 0
    12a0:	a8 01       	movw	r20, r16
    12a2:	60 e0       	ldi	r22, 0x00	; 0
    12a4:	c7 01       	movw	r24, r14
    12a6:	78 dd       	rcall	.-1296   	; 0xd98 <adp_add_send_byte>
    12a8:	94 01       	movw	r18, r8
    12aa:	2f 5f       	subi	r18, 0xFF	; 255
    12ac:	3f 4f       	sbci	r19, 0xFF	; 255
    12ae:	a5 01       	movw	r20, r10
    12b0:	68 2f       	mov	r22, r24
    12b2:	c7 01       	movw	r24, r14
    12b4:	71 dd       	rcall	.-1310   	; 0xd98 <adp_add_send_byte>
    12b6:	a8 01       	movw	r20, r16
    12b8:	4e 5f       	subi	r20, 0xFE	; 254
    12ba:	5f 4f       	sbci	r21, 0xFF	; 255
    12bc:	23 e0       	ldi	r18, 0x03	; 3
    12be:	30 e0       	ldi	r19, 0x00	; 0
    12c0:	68 2f       	mov	r22, r24
    12c2:	c7 01       	movw	r24, r14
    12c4:	69 dd       	rcall	.-1326   	; 0xd98 <adp_add_send_byte>
    12c6:	a8 01       	movw	r20, r16
    12c8:	4b 5f       	subi	r20, 0xFB	; 251
    12ca:	5f 4f       	sbci	r21, 0xFF	; 255
    12cc:	22 e0       	ldi	r18, 0x02	; 2
    12ce:	30 e0       	ldi	r19, 0x00	; 0
    12d0:	68 2f       	mov	r22, r24
    12d2:	c7 01       	movw	r24, r14
    12d4:	61 dd       	rcall	.-1342   	; 0xd98 <adp_add_send_byte>
    12d6:	bc 01       	movw	r22, r24
    12d8:	6c 5f       	subi	r22, 0xFC	; 252
    12da:	7f 4f       	sbci	r23, 0xFF	; 255
    12dc:	a6 01       	movw	r20, r12
    12de:	ce 01       	movw	r24, r28
    12e0:	8c 5f       	subi	r24, 0xFC	; 252
    12e2:	9e 4f       	sbci	r25, 0xFE	; 254
    12e4:	5a d2       	rcall	.+1204   	; 0x179a <adp_interface_transceive_procotol>
    12e6:	41 e0       	ldi	r20, 0x01	; 1
    12e8:	be 01       	movw	r22, r28
    12ea:	6f 5f       	subi	r22, 0xFF	; 255
    12ec:	7f 4f       	sbci	r23, 0xFF	; 255
    12ee:	80 e3       	ldi	r24, 0x30	; 48
    12f0:	69 dc       	rcall	.-1838   	; 0xbc4 <adp_wait_for_response>
    12f2:	81 e0       	ldi	r24, 0x01	; 1
    12f4:	99 81       	ldd	r25, Y+1	; 0x01
    12f6:	91 30       	cpi	r25, 0x01	; 1
    12f8:	09 f0       	breq	.+2      	; 0x12fc <adp_add_dashboard+0xf2>
    12fa:	80 e0       	ldi	r24, 0x00	; 0
    12fc:	cb 5f       	subi	r28, 0xFB	; 251
    12fe:	dd 4f       	sbci	r29, 0xFD	; 253
    1300:	0f b6       	in	r0, 0x3f	; 63
    1302:	f8 94       	cli
    1304:	de bf       	out	0x3e, r29	; 62
    1306:	0f be       	out	0x3f, r0	; 63
    1308:	cd bf       	out	0x3d, r28	; 61
    130a:	df 91       	pop	r29
    130c:	cf 91       	pop	r28
    130e:	1f 91       	pop	r17
    1310:	0f 91       	pop	r16
    1312:	ff 90       	pop	r15
    1314:	ef 90       	pop	r14
    1316:	df 90       	pop	r13
    1318:	cf 90       	pop	r12
    131a:	bf 90       	pop	r11
    131c:	af 90       	pop	r10
    131e:	9f 90       	pop	r9
    1320:	8f 90       	pop	r8
    1322:	08 95       	ret

00001324 <adp_add_graph_to_dashboard>:
    1324:	8f 92       	push	r8
    1326:	9f 92       	push	r9
    1328:	af 92       	push	r10
    132a:	bf 92       	push	r11
    132c:	cf 92       	push	r12
    132e:	df 92       	push	r13
    1330:	ef 92       	push	r14
    1332:	ff 92       	push	r15
    1334:	0f 93       	push	r16
    1336:	1f 93       	push	r17
    1338:	cf 93       	push	r28
    133a:	df 93       	push	r29
    133c:	cd b7       	in	r28, 0x3d	; 61
    133e:	de b7       	in	r29, 0x3e	; 62
    1340:	c5 50       	subi	r28, 0x05	; 5
    1342:	d2 40       	sbci	r29, 0x02	; 2
    1344:	0f b6       	in	r0, 0x3f	; 63
    1346:	f8 94       	cli
    1348:	de bf       	out	0x3e, r29	; 62
    134a:	0f be       	out	0x3f, r0	; 63
    134c:	cd bf       	out	0x3d, r28	; 61
    134e:	8c 01       	movw	r16, r24
    1350:	5b 01       	movw	r10, r22
    1352:	fb 01       	movw	r30, r22
    1354:	01 90       	ld	r0, Z+
    1356:	00 20       	and	r0, r0
    1358:	e9 f7       	brne	.-6      	; 0x1354 <adp_add_graph_to_dashboard+0x30>
    135a:	31 97       	sbiw	r30, 0x01	; 1
    135c:	4f 01       	movw	r8, r30
    135e:	86 1a       	sub	r8, r22
    1360:	97 0a       	sbc	r9, r23
    1362:	6e 01       	movw	r12, r28
    1364:	22 e0       	ldi	r18, 0x02	; 2
    1366:	c2 0e       	add	r12, r18
    1368:	d1 1c       	adc	r13, r1
    136a:	82 e0       	ldi	r24, 0x02	; 2
    136c:	91 e0       	ldi	r25, 0x01	; 1
    136e:	f6 01       	movw	r30, r12
    1370:	9c 01       	movw	r18, r24
    1372:	11 92       	st	Z+, r1
    1374:	21 50       	subi	r18, 0x01	; 1
    1376:	30 40       	sbci	r19, 0x00	; 0
    1378:	e1 f7       	brne	.-8      	; 0x1372 <adp_add_graph_to_dashboard+0x4e>
    137a:	8f ef       	ldi	r24, 0xFF	; 255
    137c:	cc 5f       	subi	r28, 0xFC	; 252
    137e:	de 4f       	sbci	r29, 0xFE	; 254
    1380:	88 83       	st	Y, r24
    1382:	c4 50       	subi	r28, 0x04	; 4
    1384:	d1 40       	sbci	r29, 0x01	; 1
    1386:	8b e2       	ldi	r24, 0x2B	; 43
    1388:	cb 5f       	subi	r28, 0xFB	; 251
    138a:	de 4f       	sbci	r29, 0xFE	; 254
    138c:	88 83       	st	Y, r24
    138e:	c5 50       	subi	r28, 0x05	; 5
    1390:	d1 40       	sbci	r29, 0x01	; 1
    1392:	c4 01       	movw	r24, r8
    1394:	8a 96       	adiw	r24, 0x2a	; 42
    1396:	ca 5f       	subi	r28, 0xFA	; 250
    1398:	de 4f       	sbci	r29, 0xFE	; 254
    139a:	99 83       	std	Y+1, r25	; 0x01
    139c:	88 83       	st	Y, r24
    139e:	c6 50       	subi	r28, 0x06	; 6
    13a0:	d1 40       	sbci	r29, 0x01	; 1
    13a2:	68 94       	set
    13a4:	ee 24       	eor	r14, r14
    13a6:	e2 f8       	bld	r14, 2
    13a8:	ff 24       	eor	r15, r15
    13aa:	f3 94       	inc	r15
    13ac:	ec 0e       	add	r14, r28
    13ae:	fd 1e       	adc	r15, r29
    13b0:	34 e0       	ldi	r19, 0x04	; 4
    13b2:	e3 0e       	add	r14, r19
    13b4:	f1 1c       	adc	r15, r1
    13b6:	a8 01       	movw	r20, r16
    13b8:	60 e0       	ldi	r22, 0x00	; 0
    13ba:	70 e0       	ldi	r23, 0x00	; 0
    13bc:	c7 01       	movw	r24, r14
    13be:	14 dd       	rcall	.-1496   	; 0xde8 <adp_add_dashboard_element_common_send_byte>
    13c0:	a8 01       	movw	r20, r16
    13c2:	42 5f       	subi	r20, 0xF2	; 242
    13c4:	5f 4f       	sbci	r21, 0xFF	; 255
    13c6:	23 e0       	ldi	r18, 0x03	; 3
    13c8:	30 e0       	ldi	r19, 0x00	; 0
    13ca:	68 2f       	mov	r22, r24
    13cc:	c7 01       	movw	r24, r14
    13ce:	e4 dc       	rcall	.-1592   	; 0xd98 <adp_add_send_byte>
    13d0:	a8 01       	movw	r20, r16
    13d2:	4f 5e       	subi	r20, 0xEF	; 239
    13d4:	5f 4f       	sbci	r21, 0xFF	; 255
    13d6:	23 e0       	ldi	r18, 0x03	; 3
    13d8:	30 e0       	ldi	r19, 0x00	; 0
    13da:	68 2f       	mov	r22, r24
    13dc:	c7 01       	movw	r24, r14
    13de:	dc dc       	rcall	.-1608   	; 0xd98 <adp_add_send_byte>
    13e0:	a8 01       	movw	r20, r16
    13e2:	4c 5e       	subi	r20, 0xEC	; 236
    13e4:	5f 4f       	sbci	r21, 0xFF	; 255
    13e6:	23 e0       	ldi	r18, 0x03	; 3
    13e8:	30 e0       	ldi	r19, 0x00	; 0
    13ea:	68 2f       	mov	r22, r24
    13ec:	c7 01       	movw	r24, r14
    13ee:	d4 dc       	rcall	.-1624   	; 0xd98 <adp_add_send_byte>
    13f0:	94 01       	movw	r18, r8
    13f2:	2f 5f       	subi	r18, 0xFF	; 255
    13f4:	3f 4f       	sbci	r19, 0xFF	; 255
    13f6:	a5 01       	movw	r20, r10
    13f8:	68 2f       	mov	r22, r24
    13fa:	c7 01       	movw	r24, r14
    13fc:	cd dc       	rcall	.-1638   	; 0xd98 <adp_add_send_byte>
    13fe:	a8 01       	movw	r20, r16
    1400:	49 5e       	subi	r20, 0xE9	; 233
    1402:	5f 4f       	sbci	r21, 0xFF	; 255
    1404:	21 e0       	ldi	r18, 0x01	; 1
    1406:	30 e0       	ldi	r19, 0x00	; 0
    1408:	68 2f       	mov	r22, r24
    140a:	c7 01       	movw	r24, r14
    140c:	c5 dc       	rcall	.-1654   	; 0xd98 <adp_add_send_byte>
    140e:	a8 01       	movw	r20, r16
    1410:	48 5e       	subi	r20, 0xE8	; 232
    1412:	5f 4f       	sbci	r21, 0xFF	; 255
    1414:	24 e0       	ldi	r18, 0x04	; 4
    1416:	30 e0       	ldi	r19, 0x00	; 0
    1418:	68 2f       	mov	r22, r24
    141a:	c7 01       	movw	r24, r14
    141c:	bd dc       	rcall	.-1670   	; 0xd98 <adp_add_send_byte>
    141e:	a8 01       	movw	r20, r16
    1420:	44 5e       	subi	r20, 0xE4	; 228
    1422:	5f 4f       	sbci	r21, 0xFF	; 255
    1424:	24 e0       	ldi	r18, 0x04	; 4
    1426:	30 e0       	ldi	r19, 0x00	; 0
    1428:	68 2f       	mov	r22, r24
    142a:	c7 01       	movw	r24, r14
    142c:	b5 dc       	rcall	.-1686   	; 0xd98 <adp_add_send_byte>
    142e:	a8 01       	movw	r20, r16
    1430:	40 5e       	subi	r20, 0xE0	; 224
    1432:	5f 4f       	sbci	r21, 0xFF	; 255
    1434:	24 e0       	ldi	r18, 0x04	; 4
    1436:	30 e0       	ldi	r19, 0x00	; 0
    1438:	68 2f       	mov	r22, r24
    143a:	c7 01       	movw	r24, r14
    143c:	ad dc       	rcall	.-1702   	; 0xd98 <adp_add_send_byte>
    143e:	a8 01       	movw	r20, r16
    1440:	4c 5d       	subi	r20, 0xDC	; 220
    1442:	5f 4f       	sbci	r21, 0xFF	; 255
    1444:	24 e0       	ldi	r18, 0x04	; 4
    1446:	30 e0       	ldi	r19, 0x00	; 0
    1448:	68 2f       	mov	r22, r24
    144a:	c7 01       	movw	r24, r14
    144c:	a5 dc       	rcall	.-1718   	; 0xd98 <adp_add_send_byte>
    144e:	a8 01       	movw	r20, r16
    1450:	48 5d       	subi	r20, 0xD8	; 216
    1452:	5f 4f       	sbci	r21, 0xFF	; 255
    1454:	21 e0       	ldi	r18, 0x01	; 1
    1456:	30 e0       	ldi	r19, 0x00	; 0
    1458:	68 2f       	mov	r22, r24
    145a:	c7 01       	movw	r24, r14
    145c:	9d dc       	rcall	.-1734   	; 0xd98 <adp_add_send_byte>
    145e:	bc 01       	movw	r22, r24
    1460:	6c 5f       	subi	r22, 0xFC	; 252
    1462:	7f 4f       	sbci	r23, 0xFF	; 255
    1464:	a6 01       	movw	r20, r12
    1466:	ce 01       	movw	r24, r28
    1468:	8c 5f       	subi	r24, 0xFC	; 252
    146a:	9e 4f       	sbci	r25, 0xFE	; 254
    146c:	96 d1       	rcall	.+812    	; 0x179a <adp_interface_transceive_procotol>
    146e:	41 e0       	ldi	r20, 0x01	; 1
    1470:	be 01       	movw	r22, r28
    1472:	6f 5f       	subi	r22, 0xFF	; 255
    1474:	7f 4f       	sbci	r23, 0xFF	; 255
    1476:	80 e3       	ldi	r24, 0x30	; 48
    1478:	a5 db       	rcall	.-2230   	; 0xbc4 <adp_wait_for_response>
    147a:	81 e0       	ldi	r24, 0x01	; 1
    147c:	99 81       	ldd	r25, Y+1	; 0x01
    147e:	91 30       	cpi	r25, 0x01	; 1
    1480:	09 f0       	breq	.+2      	; 0x1484 <adp_add_graph_to_dashboard+0x160>
    1482:	80 e0       	ldi	r24, 0x00	; 0
    1484:	cb 5f       	subi	r28, 0xFB	; 251
    1486:	dd 4f       	sbci	r29, 0xFD	; 253
    1488:	0f b6       	in	r0, 0x3f	; 63
    148a:	f8 94       	cli
    148c:	de bf       	out	0x3e, r29	; 62
    148e:	0f be       	out	0x3f, r0	; 63
    1490:	cd bf       	out	0x3d, r28	; 61
    1492:	df 91       	pop	r29
    1494:	cf 91       	pop	r28
    1496:	1f 91       	pop	r17
    1498:	0f 91       	pop	r16
    149a:	ff 90       	pop	r15
    149c:	ef 90       	pop	r14
    149e:	df 90       	pop	r13
    14a0:	cf 90       	pop	r12
    14a2:	bf 90       	pop	r11
    14a4:	af 90       	pop	r10
    14a6:	9f 90       	pop	r9
    14a8:	8f 90       	pop	r8
    14aa:	08 95       	ret

000014ac <adp_add_stream_to_element>:
* \return Status from PC
* \retval true   Message received and accepted
* \retval false  Message received but not accepted
*/
bool adp_add_stream_to_element(struct adp_conf_add_stream_to_element *const config)
{
    14ac:	cf 92       	push	r12
    14ae:	df 92       	push	r13
    14b0:	ef 92       	push	r14
    14b2:	ff 92       	push	r15
    14b4:	0f 93       	push	r16
    14b6:	1f 93       	push	r17
    14b8:	cf 93       	push	r28
    14ba:	df 93       	push	r29
    14bc:	cd b7       	in	r28, 0x3d	; 61
    14be:	de b7       	in	r29, 0x3e	; 62
    14c0:	c5 50       	subi	r28, 0x05	; 5
    14c2:	d2 40       	sbci	r29, 0x02	; 2
    14c4:	0f b6       	in	r0, 0x3f	; 63
    14c6:	f8 94       	cli
    14c8:	de bf       	out	0x3e, r29	; 62
    14ca:	0f be       	out	0x3f, r0	; 63
    14cc:	cd bf       	out	0x3d, r28	; 61
    14ce:	8c 01       	movw	r16, r24
	uint8_t ack;
	uint16_t data_length;
	uint16_t index = 0;
	uint8_t rx_buf[ADP_MAX_PACKET_LENGTH] = {0,};
    14d0:	6e 01       	movw	r12, r28
    14d2:	22 e0       	ldi	r18, 0x02	; 2
    14d4:	c2 0e       	add	r12, r18
    14d6:	d1 1c       	adc	r13, r1
    14d8:	82 e0       	ldi	r24, 0x02	; 2
    14da:	91 e0       	ldi	r25, 0x01	; 1
    14dc:	f6 01       	movw	r30, r12
    14de:	9c 01       	movw	r18, r24
    14e0:	11 92       	st	Z+, r1
    14e2:	21 50       	subi	r18, 0x01	; 1
    14e4:	30 40       	sbci	r19, 0x00	; 0
    14e6:	e1 f7       	brne	.-8      	; 0x14e0 <adp_add_stream_to_element+0x34>
	
	struct adp_msg_format msg_format;
	
	msg_format.protocol_token = ADP_TOKEN;
    14e8:	8f ef       	ldi	r24, 0xFF	; 255
    14ea:	cc 5f       	subi	r28, 0xFC	; 252
    14ec:	de 4f       	sbci	r29, 0xFE	; 254
    14ee:	88 83       	st	Y, r24
    14f0:	c4 50       	subi	r28, 0x04	; 4
    14f2:	d1 40       	sbci	r29, 0x01	; 1
	msg_format.protocol_msg_id = MSG_CONF_ADD_STREAM_TO_ELEMENT;
    14f4:	8c e2       	ldi	r24, 0x2C	; 44
    14f6:	cb 5f       	subi	r28, 0xFB	; 251
    14f8:	de 4f       	sbci	r29, 0xFE	; 254
    14fa:	88 83       	st	Y, r24
    14fc:	c5 50       	subi	r28, 0x05	; 5
    14fe:	d1 40       	sbci	r29, 0x01	; 1
	msg_format.data_length = MSG_CONF_ADD_STREAM_TO_ELEMENT_LEN;
    1500:	86 e0       	ldi	r24, 0x06	; 6
    1502:	90 e0       	ldi	r25, 0x00	; 0
    1504:	ca 5f       	subi	r28, 0xFA	; 250
    1506:	de 4f       	sbci	r29, 0xFE	; 254
    1508:	99 83       	std	Y+1, r25	; 0x01
    150a:	88 83       	st	Y, r24
    150c:	c6 50       	subi	r28, 0x06	; 6
    150e:	d1 40       	sbci	r29, 0x01	; 1
	index = adp_add_send_byte((uint8_t*)&msg_format.data, index, (uint8_t*)&config->dashboard_id, 2);
    1510:	68 94       	set
    1512:	ee 24       	eor	r14, r14
    1514:	e2 f8       	bld	r14, 2
    1516:	ff 24       	eor	r15, r15
    1518:	f3 94       	inc	r15
    151a:	ec 0e       	add	r14, r28
    151c:	fd 1e       	adc	r15, r29
    151e:	34 e0       	ldi	r19, 0x04	; 4
    1520:	e3 0e       	add	r14, r19
    1522:	f1 1c       	adc	r15, r1
    1524:	22 e0       	ldi	r18, 0x02	; 2
    1526:	30 e0       	ldi	r19, 0x00	; 0
    1528:	a8 01       	movw	r20, r16
    152a:	60 e0       	ldi	r22, 0x00	; 0
    152c:	c7 01       	movw	r24, r14
    152e:	34 dc       	rcall	.-1944   	; 0xd98 <adp_add_send_byte>
	index = adp_add_send_byte((uint8_t*)&msg_format.data, index, (uint8_t*)&config->element_id, 2);
    1530:	a8 01       	movw	r20, r16
    1532:	4e 5f       	subi	r20, 0xFE	; 254
    1534:	5f 4f       	sbci	r21, 0xFF	; 255
    1536:	22 e0       	ldi	r18, 0x02	; 2
    1538:	30 e0       	ldi	r19, 0x00	; 0
    153a:	68 2f       	mov	r22, r24
    153c:	c7 01       	movw	r24, r14
    153e:	2c dc       	rcall	.-1960   	; 0xd98 <adp_add_send_byte>
	index = adp_add_send_byte((uint8_t*)&msg_format.data, index, (uint8_t*)&config->stream_id, 2);
    1540:	a8 01       	movw	r20, r16
    1542:	4c 5f       	subi	r20, 0xFC	; 252
    1544:	5f 4f       	sbci	r21, 0xFF	; 255
    1546:	22 e0       	ldi	r18, 0x02	; 2
    1548:	30 e0       	ldi	r19, 0x00	; 0
    154a:	68 2f       	mov	r22, r24
    154c:	c7 01       	movw	r24, r14
    154e:	24 dc       	rcall	.-1976   	; 0xd98 <adp_add_send_byte>
	data_length = ADP_LENGTH_PACKET_HEADER + index;
	
	/* Send the protocol packet data */
	adp_interface_transceive_procotol((uint8_t*)&msg_format, data_length, rx_buf);
    1550:	bc 01       	movw	r22, r24
    1552:	6c 5f       	subi	r22, 0xFC	; 252
    1554:	7f 4f       	sbci	r23, 0xFF	; 255
    1556:	a6 01       	movw	r20, r12
    1558:	ce 01       	movw	r24, r28
    155a:	8c 5f       	subi	r24, 0xFC	; 252
    155c:	9e 4f       	sbci	r25, 0xFE	; 254
    155e:	1d d1       	rcall	.+570    	; 0x179a <adp_interface_transceive_procotol>

	/* Wait for response and return status */
	adp_wait_for_response(MSG_CONF_ACK, &ack, 1);
    1560:	41 e0       	ldi	r20, 0x01	; 1
    1562:	be 01       	movw	r22, r28
    1564:	6f 5f       	subi	r22, 0xFF	; 255
    1566:	7f 4f       	sbci	r23, 0xFF	; 255
    1568:	80 e3       	ldi	r24, 0x30	; 48
    156a:	2c db       	rcall	.-2472   	; 0xbc4 <adp_wait_for_response>
	return (ack == ADP_ACK_OK);
    156c:	81 e0       	ldi	r24, 0x01	; 1
    156e:	99 81       	ldd	r25, Y+1	; 0x01
    1570:	91 30       	cpi	r25, 0x01	; 1
    1572:	09 f0       	breq	.+2      	; 0x1576 <adp_add_stream_to_element+0xca>
    1574:	80 e0       	ldi	r24, 0x00	; 0
}
    1576:	cb 5f       	subi	r28, 0xFB	; 251
    1578:	dd 4f       	sbci	r29, 0xFD	; 253
    157a:	0f b6       	in	r0, 0x3f	; 63
    157c:	f8 94       	cli
    157e:	de bf       	out	0x3e, r29	; 62
    1580:	0f be       	out	0x3f, r0	; 63
    1582:	cd bf       	out	0x3d, r28	; 61
    1584:	df 91       	pop	r29
    1586:	cf 91       	pop	r28
    1588:	1f 91       	pop	r17
    158a:	0f 91       	pop	r16
    158c:	ff 90       	pop	r15
    158e:	ef 90       	pop	r14
    1590:	df 90       	pop	r13
    1592:	cf 90       	pop	r12
    1594:	08 95       	ret

00001596 <adp_transceive_stream>:

bool adp_transceive_stream(struct adp_msg_data_stream *const stream_data, uint8_t *protocol_buf)
{
    1596:	af 92       	push	r10
    1598:	bf 92       	push	r11
    159a:	df 92       	push	r13
    159c:	ef 92       	push	r14
    159e:	ff 92       	push	r15
    15a0:	0f 93       	push	r16
    15a2:	1f 93       	push	r17
    15a4:	cf 93       	push	r28
    15a6:	df 93       	push	r29
    15a8:	cd b7       	in	r28, 0x3d	; 61
    15aa:	de b7       	in	r29, 0x3e	; 62
    15ac:	c4 50       	subi	r28, 0x04	; 4
    15ae:	d2 40       	sbci	r29, 0x02	; 2
    15b0:	0f b6       	in	r0, 0x3f	; 63
    15b2:	f8 94       	cli
    15b4:	de bf       	out	0x3e, r29	; 62
    15b6:	0f be       	out	0x3f, r0	; 63
    15b8:	cd bf       	out	0x3d, r28	; 61
    15ba:	7c 01       	movw	r14, r24
    15bc:	5b 01       	movw	r10, r22
	uint8_t stream_num;	
	uint16_t data_length;
	uint16_t index = 0;
	uint8_t rx_buf[ADP_MAX_PACKET_LENGTH] = {0,};
    15be:	fe 01       	movw	r30, r28
    15c0:	31 96       	adiw	r30, 0x01	; 1
    15c2:	82 e0       	ldi	r24, 0x02	; 2
    15c4:	91 e0       	ldi	r25, 0x01	; 1
    15c6:	df 01       	movw	r26, r30
    15c8:	9c 01       	movw	r18, r24
    15ca:	1d 92       	st	X+, r1
    15cc:	21 50       	subi	r18, 0x01	; 1
    15ce:	30 40       	sbci	r19, 0x00	; 0
    15d0:	e1 f7       	brne	.-8      	; 0x15ca <adp_transceive_stream+0x34>
	
	struct adp_msg_format msg_format;
	
	index = adp_add_send_byte((uint8_t*)&msg_format.data, index, (uint8_t*)&stream_data->number_of_streams, 1);
    15d2:	21 e0       	ldi	r18, 0x01	; 1
    15d4:	30 e0       	ldi	r19, 0x00	; 0
    15d6:	a7 01       	movw	r20, r14
    15d8:	60 e0       	ldi	r22, 0x00	; 0
    15da:	ce 01       	movw	r24, r28
    15dc:	89 5f       	subi	r24, 0xF9	; 249
    15de:	9e 4f       	sbci	r25, 0xFE	; 254
    15e0:	db db       	rcall	.-2122   	; 0xd98 <adp_add_send_byte>
	/* find packet size */
	for (stream_num = 0; stream_num < stream_data->number_of_streams; stream_num++) {
    15e2:	d7 01       	movw	r26, r14
    15e4:	2c 91       	ld	r18, X
    15e6:	22 23       	and	r18, r18
    15e8:	99 f1       	breq	.+102    	; 0x1650 <adp_transceive_stream+0xba>
    15ea:	d1 2c       	mov	r13, r1
		index = adp_add_send_byte((uint8_t*)&msg_format.data, index, \
						(uint8_t*)&stream_data->stream[stream_num].stream_id, 2);
    15ec:	2d 2d       	mov	r18, r13
    15ee:	30 e0       	ldi	r19, 0x00	; 0
    15f0:	89 01       	movw	r16, r18
    15f2:	00 0f       	add	r16, r16
    15f4:	11 1f       	adc	r17, r17
    15f6:	00 0f       	add	r16, r16
    15f8:	11 1f       	adc	r17, r17
    15fa:	02 0f       	add	r16, r18
    15fc:	13 1f       	adc	r17, r19
    15fe:	a8 01       	movw	r20, r16
    1600:	4f 5f       	subi	r20, 0xFF	; 255
    1602:	5f 4f       	sbci	r21, 0xFF	; 255
    1604:	4e 0d       	add	r20, r14
    1606:	5f 1d       	adc	r21, r15
	struct adp_msg_format msg_format;
	
	index = adp_add_send_byte((uint8_t*)&msg_format.data, index, (uint8_t*)&stream_data->number_of_streams, 1);
	/* find packet size */
	for (stream_num = 0; stream_num < stream_data->number_of_streams; stream_num++) {
		index = adp_add_send_byte((uint8_t*)&msg_format.data, index, \
    1608:	22 e0       	ldi	r18, 0x02	; 2
    160a:	30 e0       	ldi	r19, 0x00	; 0
    160c:	68 2f       	mov	r22, r24
    160e:	ce 01       	movw	r24, r28
    1610:	89 5f       	subi	r24, 0xF9	; 249
    1612:	9e 4f       	sbci	r25, 0xFE	; 254
    1614:	c1 db       	rcall	.-2174   	; 0xd98 <adp_add_send_byte>
						(uint8_t*)&stream_data->stream[stream_num].stream_id, 2);
		index = adp_add_send_byte((uint8_t*)&msg_format.data, index, \
    1616:	a8 01       	movw	r20, r16
    1618:	4d 5f       	subi	r20, 0xFD	; 253
    161a:	5f 4f       	sbci	r21, 0xFF	; 255
    161c:	4e 0d       	add	r20, r14
    161e:	5f 1d       	adc	r21, r15
    1620:	21 e0       	ldi	r18, 0x01	; 1
    1622:	30 e0       	ldi	r19, 0x00	; 0
    1624:	68 2f       	mov	r22, r24
    1626:	ce 01       	movw	r24, r28
    1628:	89 5f       	subi	r24, 0xF9	; 249
    162a:	9e 4f       	sbci	r25, 0xFE	; 254
    162c:	b5 db       	rcall	.-2198   	; 0xd98 <adp_add_send_byte>
						(uint8_t*)&stream_data->stream[stream_num].data_size, 1);
		index = adp_add_send_byte((uint8_t*)&msg_format.data, index, \
						stream_data->stream[stream_num].data, \
						stream_data->stream[stream_num].data_size);
    162e:	f7 01       	movw	r30, r14
    1630:	e0 0f       	add	r30, r16
    1632:	f1 1f       	adc	r31, r17
	for (stream_num = 0; stream_num < stream_data->number_of_streams; stream_num++) {
		index = adp_add_send_byte((uint8_t*)&msg_format.data, index, \
						(uint8_t*)&stream_data->stream[stream_num].stream_id, 2);
		index = adp_add_send_byte((uint8_t*)&msg_format.data, index, \
						(uint8_t*)&stream_data->stream[stream_num].data_size, 1);
		index = adp_add_send_byte((uint8_t*)&msg_format.data, index, \
    1634:	23 81       	ldd	r18, Z+3	; 0x03
    1636:	30 e0       	ldi	r19, 0x00	; 0
    1638:	44 81       	ldd	r20, Z+4	; 0x04
    163a:	55 81       	ldd	r21, Z+5	; 0x05
    163c:	68 2f       	mov	r22, r24
    163e:	ce 01       	movw	r24, r28
    1640:	89 5f       	subi	r24, 0xF9	; 249
    1642:	9e 4f       	sbci	r25, 0xFE	; 254
    1644:	a9 db       	rcall	.-2222   	; 0xd98 <adp_add_send_byte>
	
	struct adp_msg_format msg_format;
	
	index = adp_add_send_byte((uint8_t*)&msg_format.data, index, (uint8_t*)&stream_data->number_of_streams, 1);
	/* find packet size */
	for (stream_num = 0; stream_num < stream_data->number_of_streams; stream_num++) {
    1646:	d3 94       	inc	r13
    1648:	f7 01       	movw	r30, r14
    164a:	20 81       	ld	r18, Z
    164c:	d2 16       	cp	r13, r18
    164e:	70 f2       	brcs	.-100    	; 0x15ec <adp_transceive_stream+0x56>
		index = adp_add_send_byte((uint8_t*)&msg_format.data, index, \
						stream_data->stream[stream_num].data, \
						stream_data->stream[stream_num].data_size);
	}
	
	msg_format.protocol_token = ADP_TOKEN;
    1650:	2f ef       	ldi	r18, 0xFF	; 255
    1652:	cd 5f       	subi	r28, 0xFD	; 253
    1654:	de 4f       	sbci	r29, 0xFE	; 254
    1656:	28 83       	st	Y, r18
    1658:	c3 50       	subi	r28, 0x03	; 3
    165a:	d1 40       	sbci	r29, 0x01	; 1
	msg_format.protocol_msg_id = MSG_DATA_STREAM;
    165c:	20 e4       	ldi	r18, 0x40	; 64
    165e:	cc 5f       	subi	r28, 0xFC	; 252
    1660:	de 4f       	sbci	r29, 0xFE	; 254
    1662:	28 83       	st	Y, r18
    1664:	c4 50       	subi	r28, 0x04	; 4
    1666:	d1 40       	sbci	r29, 0x01	; 1
	msg_format.data_length = index;
    1668:	cb 5f       	subi	r28, 0xFB	; 251
    166a:	de 4f       	sbci	r29, 0xFE	; 254
    166c:	99 83       	std	Y+1, r25	; 0x01
    166e:	88 83       	st	Y, r24
    1670:	c5 50       	subi	r28, 0x05	; 5
    1672:	d1 40       	sbci	r29, 0x01	; 1
	data_length = ADP_LENGTH_PACKET_HEADER + index;
    1674:	8c 01       	movw	r16, r24
    1676:	0c 5f       	subi	r16, 0xFC	; 252
    1678:	1f 4f       	sbci	r17, 0xFF	; 255
	
	/* Send the protocol packet data */
	adp_interface_transceive_procotol((uint8_t*)&msg_format, data_length, rx_buf);
    167a:	ae 01       	movw	r20, r28
    167c:	4f 5f       	subi	r20, 0xFF	; 255
    167e:	5f 4f       	sbci	r21, 0xFF	; 255
    1680:	b8 01       	movw	r22, r16
    1682:	ce 01       	movw	r24, r28
    1684:	8d 5f       	subi	r24, 0xFD	; 253
    1686:	9e 4f       	sbci	r25, 0xFE	; 254
    1688:	88 d0       	rcall	.+272    	; 0x179a <adp_interface_transceive_procotol>
	
	return adp_protocol_add_byte(MSG_RES_DATA, rx_buf, data_length, protocol_buf);
    168a:	95 01       	movw	r18, r10
    168c:	40 2f       	mov	r20, r16
    168e:	be 01       	movw	r22, r28
    1690:	6f 5f       	subi	r22, 0xFF	; 255
    1692:	7f 4f       	sbci	r23, 0xFF	; 255
    1694:	84 e1       	ldi	r24, 0x14	; 20
    1696:	7c d9       	rcall	.-3336   	; 0x990 <adp_protocol_add_byte>
}
    1698:	cc 5f       	subi	r28, 0xFC	; 252
    169a:	dd 4f       	sbci	r29, 0xFD	; 253
    169c:	0f b6       	in	r0, 0x3f	; 63
    169e:	f8 94       	cli
    16a0:	de bf       	out	0x3e, r29	; 62
    16a2:	0f be       	out	0x3f, r0	; 63
    16a4:	cd bf       	out	0x3d, r28	; 61
    16a6:	df 91       	pop	r29
    16a8:	cf 91       	pop	r28
    16aa:	1f 91       	pop	r17
    16ac:	0f 91       	pop	r16
    16ae:	ff 90       	pop	r15
    16b0:	ef 90       	pop	r14
    16b2:	df 90       	pop	r13
    16b4:	bf 90       	pop	r11
    16b6:	af 90       	pop	r10
    16b8:	08 95       	ret

000016ba <adp_transceive_single_stream>:
* \param[in] data_size Size of data to send
*
* \return None
*/
bool adp_transceive_single_stream(uint16_t stream_id, uint8_t* data, uint8_t data_size, uint8_t* protocol_buf)
{
    16ba:	cf 93       	push	r28
    16bc:	df 93       	push	r29
    16be:	cd b7       	in	r28, 0x3d	; 61
    16c0:	de b7       	in	r29, 0x3e	; 62
    16c2:	6b 97       	sbiw	r28, 0x1b	; 27
    16c4:	0f b6       	in	r0, 0x3f	; 63
    16c6:	f8 94       	cli
    16c8:	de bf       	out	0x3e, r29	; 62
    16ca:	0f be       	out	0x3f, r0	; 63
    16cc:	cd bf       	out	0x3d, r28	; 61
	struct adp_msg_data_stream data_stream;
	volatile uint8_t status;

	data_stream.number_of_streams = 1;
    16ce:	51 e0       	ldi	r21, 0x01	; 1
    16d0:	59 83       	std	Y+1, r21	; 0x01
	data_stream.stream[0].stream_id = stream_id;
    16d2:	9b 83       	std	Y+3, r25	; 0x03
    16d4:	8a 83       	std	Y+2, r24	; 0x02
	data_stream.stream[0].data_size = data_size;
    16d6:	4c 83       	std	Y+4, r20	; 0x04
	data_stream.stream[0].data = data;
    16d8:	7e 83       	std	Y+6, r23	; 0x06
    16da:	6d 83       	std	Y+5, r22	; 0x05
	status = adp_transceive_stream(&data_stream, protocol_buf);
    16dc:	b9 01       	movw	r22, r18
    16de:	ce 01       	movw	r24, r28
    16e0:	01 96       	adiw	r24, 0x01	; 1
    16e2:	59 df       	rcall	.-334    	; 0x1596 <adp_transceive_stream>
    16e4:	8b 8f       	std	Y+27, r24	; 0x1b
	
	return status;
    16e6:	9b 8d       	ldd	r25, Y+27	; 0x1b
    16e8:	81 e0       	ldi	r24, 0x01	; 1
    16ea:	91 11       	cpse	r25, r1
    16ec:	01 c0       	rjmp	.+2      	; 0x16f0 <adp_transceive_single_stream+0x36>
    16ee:	80 e0       	ldi	r24, 0x00	; 0
}
    16f0:	6b 96       	adiw	r28, 0x1b	; 27
    16f2:	0f b6       	in	r0, 0x3f	; 63
    16f4:	f8 94       	cli
    16f6:	de bf       	out	0x3e, r29	; 62
    16f8:	0f be       	out	0x3f, r0	; 63
    16fa:	cd bf       	out	0x3d, r28	; 61
    16fc:	df 91       	pop	r29
    16fe:	cf 91       	pop	r28
    1700:	08 95       	ret

00001702 <adp_interface_read_response>:

/**
* \brief Read response on UART from PC
*/
enum status_code adp_interface_read_response(uint8_t* rx_buf, uint16_t length)
{
    1702:	1f 93       	push	r17
    1704:	cf 93       	push	r28
    1706:	df 93       	push	r29
    1708:	ec 01       	movw	r28, r24
 * \retval true   if the buffer is empty
 * \retval false  if there is still data in the buffer
 */
static inline bool ring_buffer_is_empty(const struct ring_buffer *ring)
{
	return (ring->read_offset == ring->write_offset);
    170a:	e5 e3       	ldi	r30, 0x35	; 53
    170c:	f4 e0       	ldi	r31, 0x04	; 4
    170e:	91 81       	ldd	r25, Z+1	; 0x01
    1710:	80 81       	ld	r24, Z
	uint16_t i=0;
	uint8_t get_buffer_size;

	if(ring_buffer_is_empty(&ring_buffer_in))
    1712:	98 17       	cp	r25, r24
    1714:	79 f1       	breq	.+94     	; 0x1774 <adp_interface_read_response+0x72>
	{
		return ERR_TIMEOUT;
	}	
	//--------------------
	if(ring_buffer_in.write_offset < ring_buffer_in.read_offset )  
    1716:	90 81       	ld	r25, Z
    1718:	81 81       	ldd	r24, Z+1	; 0x01
    171a:	98 17       	cp	r25, r24
    171c:	48 f4       	brcc	.+18     	; 0x1730 <adp_interface_read_response+0x2e>
	{
		get_buffer_size =  ring_buffer_in.read_offset   -    ring_buffer_out.write_offset;
    171e:	90 91 36 04 	lds	r25, 0x0436	; 0x800436 <ring_buffer_in+0x1>
    1722:	ef e3       	ldi	r30, 0x3F	; 63
    1724:	f4 e0       	ldi	r31, 0x04	; 4
    1726:	80 81       	ld	r24, Z
    1728:	98 1b       	sub	r25, r24
		get_buffer_size =  ring_buffer_out.size          -    get_buffer_size;
    172a:	82 81       	ldd	r24, Z+2	; 0x02
    172c:	89 1b       	sub	r24, r25
    172e:	26 c0       	rjmp	.+76     	; 0x177c <adp_interface_read_response+0x7a>
	}
	else
	{
		get_buffer_size =  ring_buffer_in.write_offset  -    ring_buffer_in.read_offset;
    1730:	e5 e3       	ldi	r30, 0x35	; 53
    1732:	f4 e0       	ldi	r31, 0x04	; 4
    1734:	80 81       	ld	r24, Z
    1736:	91 81       	ldd	r25, Z+1	; 0x01
    1738:	89 1b       	sub	r24, r25
    173a:	20 c0       	rjmp	.+64     	; 0x177c <adp_interface_read_response+0x7a>
 * \returns next data byte in buffer
 */
static inline uint8_t ring_buffer_get(struct ring_buffer *ring)
{
	Assert(!ring_buffer_is_empty(ring));
	uint8_t data = ring->buffer[ring->read_offset];
    173c:	81 81       	ldd	r24, Z+1	; 0x01
    173e:	a3 81       	ldd	r26, Z+3	; 0x03
    1740:	b4 81       	ldd	r27, Z+4	; 0x04
    1742:	a8 0f       	add	r26, r24
    1744:	b1 1d       	adc	r27, r1
    1746:	8c 91       	ld	r24, X
 *
 * \returns the next read offset in the ring buffer
 */
static inline uint8_t ring_buffer_get_next_read(const struct ring_buffer *ring)
{
	return get_next(ring->read_offset, ring->size);
    1748:	91 81       	ldd	r25, Z+1	; 0x01
 *
 * \returns next offset or 0 if we are wrapping
 */
static inline uint8_t get_next(uint8_t cur_offset, uint8_t size)
{
	return (cur_offset == (size - 1) ? 0 : cur_offset + 1);
    174a:	a9 2f       	mov	r26, r25
    174c:	b0 e0       	ldi	r27, 0x00	; 0
    174e:	22 81       	ldd	r18, Z+2	; 0x02
    1750:	30 e0       	ldi	r19, 0x00	; 0
    1752:	21 50       	subi	r18, 0x01	; 1
    1754:	31 09       	sbc	r19, r1
    1756:	a2 17       	cp	r26, r18
    1758:	b3 07       	cpc	r27, r19
    175a:	11 f0       	breq	.+4      	; 0x1760 <adp_interface_read_response+0x5e>
    175c:	9f 5f       	subi	r25, 0xFF	; 255
    175e:	01 c0       	rjmp	.+2      	; 0x1762 <adp_interface_read_response+0x60>
    1760:	91 2f       	mov	r25, r17
 */
static inline uint8_t ring_buffer_get(struct ring_buffer *ring)
{
	Assert(!ring_buffer_is_empty(ring));
	uint8_t data = ring->buffer[ring->read_offset];
	ring->read_offset = ring_buffer_get_next_read(ring);
    1762:	91 83       	std	Z+1, r25	; 0x01
		return ERR_BUSY;
	}
	//--------------------
	for(i=0;i<=length;i++)
	{
			*rx_buf=ring_buffer_get(&ring_buffer_in);
    1764:	89 93       	st	Y+, r24
	if(get_buffer_size-1 != length)
	{
		return ERR_BUSY;
	}
	//--------------------
	for(i=0;i<=length;i++)
    1766:	4f 5f       	subi	r20, 0xFF	; 255
    1768:	5f 4f       	sbci	r21, 0xFF	; 255
    176a:	64 17       	cp	r22, r20
    176c:	75 07       	cpc	r23, r21
    176e:	30 f7       	brcc	.-52     	; 0x173c <adp_interface_read_response+0x3a>
	{
			*rx_buf=ring_buffer_get(&ring_buffer_in);
			rx_buf++;
	}
	//--------------------
	return STATUS_OK;
    1770:	80 e0       	ldi	r24, 0x00	; 0
    1772:	0f c0       	rjmp	.+30     	; 0x1792 <adp_interface_read_response+0x90>
	uint16_t i=0;
	uint8_t get_buffer_size;

	if(ring_buffer_is_empty(&ring_buffer_in))
	{
		return ERR_TIMEOUT;
    1774:	8d ef       	ldi	r24, 0xFD	; 253
    1776:	0d c0       	rjmp	.+26     	; 0x1792 <adp_interface_read_response+0x90>
		get_buffer_size =  ring_buffer_in.write_offset  -    ring_buffer_in.read_offset;
	}
	//--------------------
	if(get_buffer_size-1 != length)
	{
		return ERR_BUSY;
    1778:	86 ef       	ldi	r24, 0xF6	; 246
    177a:	0b c0       	rjmp	.+22     	; 0x1792 <adp_interface_read_response+0x90>
	else
	{
		get_buffer_size =  ring_buffer_in.write_offset  -    ring_buffer_in.read_offset;
	}
	//--------------------
	if(get_buffer_size-1 != length)
    177c:	90 e0       	ldi	r25, 0x00	; 0
    177e:	01 97       	sbiw	r24, 0x01	; 1
    1780:	68 17       	cp	r22, r24
    1782:	79 07       	cpc	r23, r25
    1784:	c9 f7       	brne	.-14     	; 0x1778 <adp_interface_read_response+0x76>
    1786:	40 e0       	ldi	r20, 0x00	; 0
    1788:	50 e0       	ldi	r21, 0x00	; 0
 * \returns next data byte in buffer
 */
static inline uint8_t ring_buffer_get(struct ring_buffer *ring)
{
	Assert(!ring_buffer_is_empty(ring));
	uint8_t data = ring->buffer[ring->read_offset];
    178a:	e5 e3       	ldi	r30, 0x35	; 53
    178c:	f4 e0       	ldi	r31, 0x04	; 4
 *
 * \returns next offset or 0 if we are wrapping
 */
static inline uint8_t get_next(uint8_t cur_offset, uint8_t size)
{
	return (cur_offset == (size - 1) ? 0 : cur_offset + 1);
    178e:	10 e0       	ldi	r17, 0x00	; 0
    1790:	d5 cf       	rjmp	.-86     	; 0x173c <adp_interface_read_response+0x3a>
			*rx_buf=ring_buffer_get(&ring_buffer_in);
			rx_buf++;
	}
	//--------------------
	return STATUS_OK;
}
    1792:	df 91       	pop	r29
    1794:	cf 91       	pop	r28
    1796:	1f 91       	pop	r17
    1798:	08 95       	ret

0000179a <adp_interface_transceive_procotol>:

/**
* \brief Sends and reads protocol packet data byte on UART
*/
void adp_interface_transceive_procotol(uint8_t* tx_buf, uint16_t length, uint8_t* rx_buf)
{
    179a:	0f 93       	push	r16
    179c:	1f 93       	push	r17
    179e:	cf 93       	push	r28
    17a0:	df 93       	push	r29

static enum status_code adp_interface_send(uint8_t* tx_buf, uint16_t length)
{
	enum status_code status;
	
	while(length--)
    17a2:	61 15       	cp	r22, r1
    17a4:	71 05       	cpc	r23, r1
    17a6:	49 f0       	breq	.+18     	; 0x17ba <adp_interface_transceive_procotol+0x20>
    17a8:	08 2f       	mov	r16, r24
    17aa:	19 2f       	mov	r17, r25
    17ac:	eb 01       	movw	r28, r22
	{
		uart_putchar(*tx_buf++);	 
    17ae:	f8 01       	movw	r30, r16
    17b0:	81 91       	ld	r24, Z+
    17b2:	8f 01       	movw	r16, r30
    17b4:	32 d1       	rcall	.+612    	; 0x1a1a <uart_putchar>
    17b6:	21 97       	sbiw	r28, 0x01	; 1

static enum status_code adp_interface_send(uint8_t* tx_buf, uint16_t length)
{
	enum status_code status;
	
	while(length--)
    17b8:	d1 f7       	brne	.-12     	; 0x17ae <adp_interface_transceive_procotol+0x14>
* \brief Sends and reads protocol packet data byte on UART
*/
void adp_interface_transceive_procotol(uint8_t* tx_buf, uint16_t length, uint8_t* rx_buf)
{
	adp_interface_send(tx_buf, length);	
}
    17ba:	df 91       	pop	r29
    17bc:	cf 91       	pop	r28
    17be:	1f 91       	pop	r17
    17c0:	0f 91       	pop	r16
    17c2:	08 95       	ret

000017c4 <calendar_leapyear>:
		}
	}
	// Calculate number of seconds
	date_out->second = date_end->second - date_start->second;

}
    17c4:	ac 01       	movw	r20, r24
    17c6:	83 70       	andi	r24, 0x03	; 3
    17c8:	99 27       	eor	r25, r25
    17ca:	89 2b       	or	r24, r25
    17cc:	61 f5       	brne	.+88     	; 0x1826 <calendar_leapyear+0x62>
    17ce:	9a 01       	movw	r18, r20
    17d0:	36 95       	lsr	r19
    17d2:	27 95       	ror	r18
    17d4:	36 95       	lsr	r19
    17d6:	27 95       	ror	r18
    17d8:	ab e7       	ldi	r26, 0x7B	; 123
    17da:	b4 e1       	ldi	r27, 0x14	; 20
    17dc:	4a d7       	rcall	.+3732   	; 0x2672 <__umulhisi3>
    17de:	96 95       	lsr	r25
    17e0:	87 95       	ror	r24
    17e2:	64 e6       	ldi	r22, 0x64	; 100
    17e4:	68 9f       	mul	r22, r24
    17e6:	90 01       	movw	r18, r0
    17e8:	69 9f       	mul	r22, r25
    17ea:	30 0d       	add	r19, r0
    17ec:	11 24       	eor	r1, r1
    17ee:	42 17       	cp	r20, r18
    17f0:	53 07       	cpc	r21, r19
    17f2:	d9 f4       	brne	.+54     	; 0x182a <calendar_leapyear+0x66>
    17f4:	9a 01       	movw	r18, r20
    17f6:	32 95       	swap	r19
    17f8:	22 95       	swap	r18
    17fa:	2f 70       	andi	r18, 0x0F	; 15
    17fc:	23 27       	eor	r18, r19
    17fe:	3f 70       	andi	r19, 0x0F	; 15
    1800:	23 27       	eor	r18, r19
    1802:	ae e3       	ldi	r26, 0x3E	; 62
    1804:	ba e0       	ldi	r27, 0x0A	; 10
    1806:	35 d7       	rcall	.+3690   	; 0x2672 <__umulhisi3>
    1808:	60 e9       	ldi	r22, 0x90	; 144
    180a:	71 e0       	ldi	r23, 0x01	; 1
    180c:	86 9f       	mul	r24, r22
    180e:	90 01       	movw	r18, r0
    1810:	87 9f       	mul	r24, r23
    1812:	30 0d       	add	r19, r0
    1814:	96 9f       	mul	r25, r22
    1816:	30 0d       	add	r19, r0
    1818:	11 24       	eor	r1, r1
    181a:	81 e0       	ldi	r24, 0x01	; 1
    181c:	42 17       	cp	r20, r18
    181e:	53 07       	cpc	r21, r19
    1820:	29 f0       	breq	.+10     	; 0x182c <calendar_leapyear+0x68>
    1822:	80 e0       	ldi	r24, 0x00	; 0
    1824:	08 95       	ret
    1826:	80 e0       	ldi	r24, 0x00	; 0
    1828:	08 95       	ret
    182a:	81 e0       	ldi	r24, 0x01	; 1
    182c:	08 95       	ret

0000182e <Find_WeekDay>:
    182e:	cf 93       	push	r28
    1830:	df 93       	push	r29
    1832:	cd b7       	in	r28, 0x3d	; 61
    1834:	de b7       	in	r29, 0x3e	; 62
    1836:	2c 97       	sbiw	r28, 0x0c	; 12
    1838:	0f b6       	in	r0, 0x3f	; 63
    183a:	f8 94       	cli
    183c:	de bf       	out	0x3e, r29	; 62
    183e:	0f be       	out	0x3f, r0	; 63
    1840:	cd bf       	out	0x3d, r28	; 61
    1842:	2c e0       	ldi	r18, 0x0C	; 12
    1844:	e9 e5       	ldi	r30, 0x59	; 89
    1846:	f1 e0       	ldi	r31, 0x01	; 1
    1848:	de 01       	movw	r26, r28
    184a:	11 96       	adiw	r26, 0x01	; 1
    184c:	01 90       	ld	r0, Z+
    184e:	0d 92       	st	X+, r0
    1850:	2a 95       	dec	r18
    1852:	e1 f7       	brne	.-8      	; 0x184c <Find_WeekDay+0x1e>
    1854:	63 30       	cpi	r22, 0x03	; 3
    1856:	08 f4       	brcc	.+2      	; 0x185a <Find_WeekDay+0x2c>
    1858:	01 97       	sbiw	r24, 0x01	; 1
    185a:	fe 01       	movw	r30, r28
    185c:	e6 0f       	add	r30, r22
    185e:	f1 1d       	adc	r31, r1
    1860:	20 81       	ld	r18, Z
    1862:	50 e0       	ldi	r21, 0x00	; 0
    1864:	42 0f       	add	r20, r18
    1866:	51 1d       	adc	r21, r1
    1868:	48 0f       	add	r20, r24
    186a:	59 1f       	adc	r21, r25
    186c:	fc 01       	movw	r30, r24
    186e:	f6 95       	lsr	r31
    1870:	e7 95       	ror	r30
    1872:	f6 95       	lsr	r31
    1874:	e7 95       	ror	r30
    1876:	4e 0f       	add	r20, r30
    1878:	5f 1f       	adc	r21, r31
    187a:	9c 01       	movw	r18, r24
    187c:	32 95       	swap	r19
    187e:	22 95       	swap	r18
    1880:	2f 70       	andi	r18, 0x0F	; 15
    1882:	23 27       	eor	r18, r19
    1884:	3f 70       	andi	r19, 0x0F	; 15
    1886:	23 27       	eor	r18, r19
    1888:	ae e3       	ldi	r26, 0x3E	; 62
    188a:	ba e0       	ldi	r27, 0x0A	; 10
    188c:	f2 d6       	rcall	.+3556   	; 0x2672 <__umulhisi3>
    188e:	48 0f       	add	r20, r24
    1890:	59 1f       	adc	r21, r25
    1892:	9f 01       	movw	r18, r30
    1894:	ab e7       	ldi	r26, 0x7B	; 123
    1896:	b4 e1       	ldi	r27, 0x14	; 20
    1898:	ec d6       	rcall	.+3544   	; 0x2672 <__umulhisi3>
    189a:	96 95       	lsr	r25
    189c:	87 95       	ror	r24
    189e:	48 1b       	sub	r20, r24
    18a0:	59 0b       	sbc	r21, r25
    18a2:	9a 01       	movw	r18, r20
    18a4:	a3 e9       	ldi	r26, 0x93	; 147
    18a6:	b4 e2       	ldi	r27, 0x24	; 36
    18a8:	e4 d6       	rcall	.+3528   	; 0x2672 <__umulhisi3>
    18aa:	28 1b       	sub	r18, r24
    18ac:	39 0b       	sbc	r19, r25
    18ae:	36 95       	lsr	r19
    18b0:	27 95       	ror	r18
    18b2:	82 0f       	add	r24, r18
    18b4:	93 1f       	adc	r25, r19
    18b6:	96 95       	lsr	r25
    18b8:	87 95       	ror	r24
    18ba:	96 95       	lsr	r25
    18bc:	87 95       	ror	r24
    18be:	9c 01       	movw	r18, r24
    18c0:	22 0f       	add	r18, r18
    18c2:	33 1f       	adc	r19, r19
    18c4:	22 0f       	add	r18, r18
    18c6:	33 1f       	adc	r19, r19
    18c8:	22 0f       	add	r18, r18
    18ca:	33 1f       	adc	r19, r19
    18cc:	b9 01       	movw	r22, r18
    18ce:	68 1b       	sub	r22, r24
    18d0:	79 0b       	sbc	r23, r25
    18d2:	cb 01       	movw	r24, r22
    18d4:	74 2f       	mov	r23, r20
    18d6:	78 1b       	sub	r23, r24
    18d8:	87 2f       	mov	r24, r23
    18da:	2c 96       	adiw	r28, 0x0c	; 12
    18dc:	0f b6       	in	r0, 0x3f	; 63
    18de:	f8 94       	cli
    18e0:	de bf       	out	0x3e, r29	; 62
    18e2:	0f be       	out	0x3f, r0	; 63
    18e4:	cd bf       	out	0x3d, r28	; 61
    18e6:	df 91       	pop	r29
    18e8:	cf 91       	pop	r28
    18ea:	08 95       	ret

000018ec <Calc_WeekDay>:
    18ec:	cf 93       	push	r28
    18ee:	df 93       	push	r29
    18f0:	ec 01       	movw	r28, r24
    18f2:	4b 81       	ldd	r20, Y+3	; 0x03
    18f4:	4f 5f       	subi	r20, 0xFF	; 255
    18f6:	6c 81       	ldd	r22, Y+4	; 0x04
    18f8:	6f 5f       	subi	r22, 0xFF	; 255
    18fa:	8d 81       	ldd	r24, Y+5	; 0x05
    18fc:	9e 81       	ldd	r25, Y+6	; 0x06
    18fe:	97 df       	rcall	.-210    	; 0x182e <Find_WeekDay>
    1900:	8f 83       	std	Y+7, r24	; 0x07
    1902:	df 91       	pop	r29
    1904:	cf 91       	pop	r28
    1906:	08 95       	ret

00001908 <calendar_add_second_to_date>:
 *
 * \param date The date to add a second to
 *
 */
void calendar_add_second_to_date(struct calendar_date *date)
{
    1908:	ef 92       	push	r14
    190a:	ff 92       	push	r15
    190c:	0f 93       	push	r16
    190e:	1f 93       	push	r17
    1910:	cf 93       	push	r28
    1912:	df 93       	push	r29
    1914:	fc 01       	movw	r30, r24
	// Check if input date is valid
	Assert(calendar_is_date_valid(date));

	if (++date->second == 60) {
    1916:	90 81       	ld	r25, Z
    1918:	9f 5f       	subi	r25, 0xFF	; 255
    191a:	9c 33       	cpi	r25, 0x3C	; 60
    191c:	11 f0       	breq	.+4      	; 0x1922 <calendar_add_second_to_date+0x1a>
    191e:	90 83       	st	Z, r25
    1920:	3b c0       	rjmp	.+118    	; 0x1998 <calendar_add_second_to_date+0x90>
    1922:	ef 01       	movw	r28, r30
		date->second = 0;
    1924:	10 82       	st	Z, r1
 * \param *date the date to add a minute to
 *
 */
static void calendar_add_minute_to_date(struct calendar_date *date)
{
	uint8_t minute = date->minute;
    1926:	81 81       	ldd	r24, Z+1	; 0x01
	minute++;
    1928:	8f 5f       	subi	r24, 0xFF	; 255
	if (minute == 60){
    192a:	8c 33       	cpi	r24, 0x3C	; 60
    192c:	a1 f5       	brne	.+104    	; 0x1996 <calendar_add_second_to_date+0x8e>
 *
 */
static void calendar_add_hour_to_date(struct calendar_date *date)
{
	int8_t hour = date->hour;
	hour++;
    192e:	82 81       	ldd	r24, Z+2	; 0x02
    1930:	8f 5f       	subi	r24, 0xFF	; 255
	if (hour == 24){
    1932:	88 31       	cpi	r24, 0x18	; 24
    1934:	71 f5       	brne	.+92     	; 0x1992 <calendar_add_second_to_date+0x8a>
 * \param *date the date to add a day to
 *
 */
static void calendar_add_day_to_date(struct calendar_date *date)
{
	uint8_t dates = date->date;
    1936:	f3 80       	ldd	r15, Z+3	; 0x03
	uint8_t months = date->month;
    1938:	e4 80       	ldd	r14, Z+4	; 0x04
	uint8_t year = date->year;
    193a:	05 81       	ldd	r16, Z+5	; 0x05
    193c:	16 81       	ldd	r17, Z+6	; 0x06

	dates++;
    193e:	f3 94       	inc	r15
	if (dates == month[calendar_leapyear(year)][months]) {
    1940:	c8 01       	movw	r24, r16
    1942:	99 27       	eor	r25, r25
    1944:	3f df       	rcall	.-386    	; 0x17c4 <calendar_leapyear>
    1946:	90 e0       	ldi	r25, 0x00	; 0
    1948:	fc 01       	movw	r30, r24
    194a:	ee 0f       	add	r30, r30
    194c:	ff 1f       	adc	r31, r31
    194e:	e8 0f       	add	r30, r24
    1950:	f9 1f       	adc	r31, r25
    1952:	ee 0f       	add	r30, r30
    1954:	ff 1f       	adc	r31, r31
    1956:	ee 0f       	add	r30, r30
    1958:	ff 1f       	adc	r31, r31
    195a:	e5 5d       	subi	r30, 0xD5	; 213
    195c:	fd 4f       	sbci	r31, 0xFD	; 253
    195e:	ee 0d       	add	r30, r14
    1960:	f1 1d       	adc	r31, r1
    1962:	80 81       	ld	r24, Z
    1964:	f8 12       	cpse	r15, r24
    1966:	11 c0       	rjmp	.+34     	; 0x198a <calendar_add_second_to_date+0x82>
 *
 */
static void calendar_add_month_to_date(struct calendar_date *date)
{
	uint8_t months = date->month;
	months++;
    1968:	81 e0       	ldi	r24, 0x01	; 1
    196a:	8e 0d       	add	r24, r14
	if (months == 12){
    196c:	8c 30       	cpi	r24, 0x0C	; 12
    196e:	59 f4       	brne	.+22     	; 0x1986 <calendar_add_second_to_date+0x7e>
 * \param *date the date to add a year to
 *
 */
static void calendar_add_year_to_date(struct calendar_date *date)
{
	if (date->year < 2105) {
    1970:	09 33       	cpi	r16, 0x39	; 57
    1972:	88 e0       	ldi	r24, 0x08	; 8
    1974:	18 07       	cpc	r17, r24
    1976:	30 f4       	brcc	.+12     	; 0x1984 <calendar_add_second_to_date+0x7c>
		date->year++;
    1978:	0f 5f       	subi	r16, 0xFF	; 255
    197a:	1f 4f       	sbci	r17, 0xFF	; 255
    197c:	1e 83       	std	Y+6, r17	; 0x06
    197e:	0d 83       	std	Y+5, r16	; 0x05
static void calendar_add_month_to_date(struct calendar_date *date)
{
	uint8_t months = date->month;
	months++;
	if (months == 12){
		months = 0;
    1980:	80 e0       	ldi	r24, 0x00	; 0
    1982:	01 c0       	rjmp	.+2      	; 0x1986 <calendar_add_second_to_date+0x7e>
    1984:	80 e0       	ldi	r24, 0x00	; 0
		calendar_add_year_to_date(date);
	}
	date->month = months;
    1986:	8c 83       	std	Y+4, r24	; 0x04
	uint8_t months = date->month;
	uint8_t year = date->year;

	dates++;
	if (dates == month[calendar_leapyear(year)][months]) {
		dates = 0;
    1988:	f1 2c       	mov	r15, r1
		calendar_add_month_to_date(date);
	}
	
	date->date = dates;	
	Calc_WeekDay(date);
    198a:	fb 82       	std	Y+3, r15	; 0x03
    198c:	ce 01       	movw	r24, r28
static void calendar_add_hour_to_date(struct calendar_date *date)
{
	int8_t hour = date->hour;
	hour++;
	if (hour == 24){
		hour = 0;
    198e:	ae df       	rcall	.-164    	; 0x18ec <Calc_WeekDay>
		calendar_add_day_to_date(date);
	}
	date->hour = hour;
    1990:	80 e0       	ldi	r24, 0x00	; 0
static void calendar_add_minute_to_date(struct calendar_date *date)
{
	uint8_t minute = date->minute;
	minute++;
	if (minute == 60){
		minute = 0;
    1992:	8a 83       	std	Y+2, r24	; 0x02
		calendar_add_hour_to_date(date);
	}
	date->minute = minute;
    1994:	80 e0       	ldi	r24, 0x00	; 0

	if (++date->second == 60) {
		date->second = 0;
		calendar_add_minute_to_date(date);
	}
}
    1996:	89 83       	std	Y+1, r24	; 0x01
    1998:	df 91       	pop	r29
    199a:	cf 91       	pop	r28
    199c:	1f 91       	pop	r17
    199e:	0f 91       	pop	r16
    19a0:	ff 90       	pop	r15
    19a2:	ef 90       	pop	r14
    19a4:	08 95       	ret

000019a6 <sysclk_init>:

/**
 *  Function to initialize the clock and disable clock for not required modules.
 */
void sysclk_init(void)
{
    19a6:	cf 93       	push	r28
    19a8:	df 93       	push	r29
    19aa:	1f 92       	push	r1
    19ac:	cd b7       	in	r28, 0x3d	; 61
    19ae:	de b7       	in	r29, 0x3e	; 62
	/* Turn off all peripheral clocks that can be turned off.
	 * The debugWIRE system of some devices that shares system clock with the SPI module.
	 * Thus the PRSPI bit in the PRR register must not be set when debugging.
	 */
	for (i = 0; i < NUMBER_OF_POWER_REG; i++) {
		*(reg++) = 0xFF;
    19b0:	8f ef       	ldi	r24, 0xFF	; 255
    19b2:	80 93 64 00 	sts	0x0064, r24	; 0x800064 <__TEXT_REGION_LENGTH__+0x7e0064>

typedef uint8_t irqflags_t;

static inline irqflags_t cpu_irq_save(void)
{
	volatile irqflags_t flags = SREG;
    19b6:	8f b7       	in	r24, 0x3f	; 63
    19b8:	89 83       	std	Y+1, r24	; 0x01
	cpu_irq_disable();
    19ba:	f8 94       	cli
	return flags;
    19bc:	89 81       	ldd	r24, Y+1	; 0x01
static inline void sysclk_set_prescalers(uint8_t psdiv)
{
#if !MEGA_UNSPECIFIED
	irqflags_t flags = cpu_irq_save();

	ASM(
    19be:	5f 93       	push	r21
    19c0:	50 e8       	ldi	r21, 0x80	; 128
    19c2:	50 93 61 00 	sts	0x0061, r21	; 0x800061 <__TEXT_REGION_LENGTH__+0x7e0061>
    19c6:	50 e0       	ldi	r21, 0x00	; 0
    19c8:	50 93 61 00 	sts	0x0061, r21	; 0x800061 <__TEXT_REGION_LENGTH__+0x7e0061>
    19cc:	5f 91       	pop	r21
}

static inline void cpu_irq_restore(irqflags_t flags)
{
	barrier();
	SREG = flags;
    19ce:	8f bf       	out	0x3f, r24	; 63
	if ((CONFIG_SYSCLK_PSDIV != SYSCLK_PSDIV_8) ||
			(SYSCLK_PSDIV_8 != CLKPR)) {
		sysclk_set_prescalers(CONFIG_SYSCLK_PSDIV);
	}
#endif
}
    19d0:	0f 90       	pop	r0
    19d2:	df 91       	pop	r29
    19d4:	cf 91       	pop	r28
    19d6:	08 95       	ret

000019d8 <sysclk_enable_module>:
 * \param port ID of the port to which the module is connected (one of
 * the \c power_red_id *definitions).
 * \param id The ID (bitmask) of the peripheral module to be enabled.
 */
void sysclk_enable_module(enum power_red_id port, uint8_t id)
{
    19d8:	cf 93       	push	r28
    19da:	df 93       	push	r29
    19dc:	1f 92       	push	r1
    19de:	cd b7       	in	r28, 0x3d	; 61
    19e0:	de b7       	in	r29, 0x3e	; 62

typedef uint8_t irqflags_t;

static inline irqflags_t cpu_irq_save(void)
{
	volatile irqflags_t flags = SREG;
    19e2:	9f b7       	in	r25, 0x3f	; 63
    19e4:	99 83       	std	Y+1, r25	; 0x01
	cpu_irq_disable();
    19e6:	f8 94       	cli
	return flags;
    19e8:	99 81       	ldd	r25, Y+1	; 0x01
#if !MEGA_UNSPECIFIED && !MEGA_XX
	uint8_t *reg = (uint8_t *)&(POWER_REG_ADD);
	irqflags_t flags = cpu_irq_save();

	if (port < NUMBER_OF_POWER_REG) {
    19ea:	81 11       	cpse	r24, r1
    19ec:	06 c0       	rjmp	.+12     	; 0x19fa <sysclk_enable_module+0x22>
		*(reg + port)  &= ~id;
    19ee:	e4 e6       	ldi	r30, 0x64	; 100
    19f0:	f0 e0       	ldi	r31, 0x00	; 0
    19f2:	60 95       	com	r22
    19f4:	80 81       	ld	r24, Z
    19f6:	68 23       	and	r22, r24
    19f8:	60 83       	st	Z, r22
}

static inline void cpu_irq_restore(irqflags_t flags)
{
	barrier();
	SREG = flags;
    19fa:	9f bf       	out	0x3f, r25	; 63
	}
	cpu_irq_restore(flags);
#endif
}
    19fc:	0f 90       	pop	r0
    19fe:	df 91       	pop	r29
    1a00:	cf 91       	pop	r28
    1a02:	08 95       	ret

00001a04 <__portable_avr_delay_cycles>:
 *
 * @{
 */
__always_optimize
static inline void __portable_avr_delay_cycles(unsigned long n)
{
    1a04:	04 c0       	rjmp	.+8      	; 0x1a0e <__portable_avr_delay_cycles+0xa>
	while (n) {
		barrier();
		n--;
    1a06:	61 50       	subi	r22, 0x01	; 1
    1a08:	71 09       	sbc	r23, r1
    1a0a:	81 09       	sbc	r24, r1
    1a0c:	91 09       	sbc	r25, r1
 * @{
 */
__always_optimize
static inline void __portable_avr_delay_cycles(unsigned long n)
{
	while (n) {
    1a0e:	61 15       	cp	r22, r1
    1a10:	71 05       	cpc	r23, r1
    1a12:	81 05       	cpc	r24, r1
    1a14:	91 05       	cpc	r25, r1
    1a16:	b9 f7       	brne	.-18     	; 0x1a06 <__portable_avr_delay_cycles+0x2>
    1a18:	08 95       	ret

00001a1a <uart_putchar>:
	do{
		
		if(ring_buffer_out.write_offset < ring_buffer_out.read_offset ) // ring buffer overback olmuþ ise
		{
			buffer_use_size =  ring_buffer_out.read_offset   -    ring_buffer_out.write_offset;
			buffer_use_size =  ring_buffer_out.size          -    buffer_use_size;
    1a1a:	60 91 41 04 	lds	r22, 0x0441	; 0x800441 <ring_buffer_out+0x2>
		}else
		{
			buffer_use_size =  ring_buffer_out.write_offset  -    ring_buffer_out.read_offset;
		}
		
	}while( ring_buffer_out.size-1 ==  buffer_use_size );// buffer da yeterince yer açýlana kadar bekle.
    1a1e:	46 2f       	mov	r20, r22
    1a20:	50 e0       	ldi	r21, 0x00	; 0
    1a22:	41 50       	subi	r20, 0x01	; 1
    1a24:	51 09       	sbc	r21, r1
{
	uint8_t buffer_use_size;

	do{
		
		if(ring_buffer_out.write_offset < ring_buffer_out.read_offset ) // ring buffer overback olmuþ ise
    1a26:	ef e3       	ldi	r30, 0x3F	; 63
    1a28:	f4 e0       	ldi	r31, 0x04	; 4
    1a2a:	20 81       	ld	r18, Z
    1a2c:	91 81       	ldd	r25, Z+1	; 0x01
    1a2e:	29 17       	cp	r18, r25
    1a30:	30 f4       	brcc	.+12     	; 0x1a3e <uart_putchar+0x24>
		{
			buffer_use_size =  ring_buffer_out.read_offset   -    ring_buffer_out.write_offset;
    1a32:	91 81       	ldd	r25, Z+1	; 0x01
    1a34:	20 81       	ld	r18, Z
    1a36:	92 1b       	sub	r25, r18
			buffer_use_size =  ring_buffer_out.size          -    buffer_use_size;
    1a38:	26 2f       	mov	r18, r22
    1a3a:	29 1b       	sub	r18, r25
    1a3c:	03 c0       	rjmp	.+6      	; 0x1a44 <uart_putchar+0x2a>
		}else
		{
			buffer_use_size =  ring_buffer_out.write_offset  -    ring_buffer_out.read_offset;
    1a3e:	20 81       	ld	r18, Z
    1a40:	91 81       	ldd	r25, Z+1	; 0x01
    1a42:	29 1b       	sub	r18, r25
		}
		
	}while( ring_buffer_out.size-1 ==  buffer_use_size );// buffer da yeterince yer açýlana kadar bekle.
    1a44:	30 e0       	ldi	r19, 0x00	; 0
    1a46:	42 17       	cp	r20, r18
    1a48:	53 07       	cpc	r21, r19
    1a4a:	79 f3       	breq	.-34     	; 0x1a2a <uart_putchar+0x10>
	
	// Disable interrupts to get exclusive access to ring_buffer_out.
	cli();
    1a4c:	f8 94       	cli
 * \retval true   if the buffer is empty
 * \retval false  if there is still data in the buffer
 */
static inline bool ring_buffer_is_empty(const struct ring_buffer *ring)
{
	return (ring->read_offset == ring->write_offset);
    1a4e:	ef e3       	ldi	r30, 0x3F	; 63
    1a50:	f4 e0       	ldi	r31, 0x04	; 4
    1a52:	21 81       	ldd	r18, Z+1	; 0x01
    1a54:	90 81       	ld	r25, Z
	if (ring_buffer_is_empty(&ring_buffer_out)) {
    1a56:	29 13       	cpse	r18, r25
    1a58:	05 c0       	rjmp	.+10     	; 0x1a64 <uart_putchar+0x4a>
		// First data in buffer, enable data ready interrupt
		UCSR0B |=  (1 << UDRIE0);
    1a5a:	e1 ec       	ldi	r30, 0xC1	; 193
    1a5c:	f0 e0       	ldi	r31, 0x00	; 0
    1a5e:	90 81       	ld	r25, Z
    1a60:	90 62       	ori	r25, 0x20	; 32
    1a62:	90 83       	st	Z, r25
 *
 */
static inline void ring_buffer_put(struct ring_buffer *ring, uint8_t data)
{
	Assert(!ring_buffer_is_full(ring));
	ring->buffer[ring->write_offset] = data;
    1a64:	ef e3       	ldi	r30, 0x3F	; 63
    1a66:	f4 e0       	ldi	r31, 0x04	; 4
    1a68:	90 81       	ld	r25, Z
    1a6a:	a3 81       	ldd	r26, Z+3	; 0x03
    1a6c:	b4 81       	ldd	r27, Z+4	; 0x04
    1a6e:	a9 0f       	add	r26, r25
    1a70:	b1 1d       	adc	r27, r1
    1a72:	8c 93       	st	X, r24
 *
 * \returns the next write offset in the ring buffer
 */
static inline uint8_t ring_buffer_get_next_write(const struct ring_buffer *ring)
{
	return get_next(ring->write_offset, ring->size);
    1a74:	20 81       	ld	r18, Z
 *
 * \returns next offset or 0 if we are wrapping
 */
static inline uint8_t get_next(uint8_t cur_offset, uint8_t size)
{
	return (cur_offset == (size - 1) ? 0 : cur_offset + 1);
    1a76:	42 2f       	mov	r20, r18
    1a78:	50 e0       	ldi	r21, 0x00	; 0
    1a7a:	82 81       	ldd	r24, Z+2	; 0x02
    1a7c:	90 e0       	ldi	r25, 0x00	; 0
    1a7e:	01 97       	sbiw	r24, 0x01	; 1
    1a80:	48 17       	cp	r20, r24
    1a82:	59 07       	cpc	r21, r25
    1a84:	11 f0       	breq	.+4      	; 0x1a8a <uart_putchar+0x70>
    1a86:	2f 5f       	subi	r18, 0xFF	; 255
    1a88:	01 c0       	rjmp	.+2      	; 0x1a8c <uart_putchar+0x72>
    1a8a:	20 e0       	ldi	r18, 0x00	; 0
 */
static inline void ring_buffer_put(struct ring_buffer *ring, uint8_t data)
{
	Assert(!ring_buffer_is_full(ring));
	ring->buffer[ring->write_offset] = data;
	ring->write_offset = ring_buffer_get_next_write(ring);
    1a8c:	20 93 3f 04 	sts	0x043F, r18	; 0x80043f <ring_buffer_out>
	}
	// Put data in buffer
	ring_buffer_put(&ring_buffer_out, data);

	// Re-enable interrupts
	sei();
    1a90:	78 94       	sei
    1a92:	08 95       	ret

00001a94 <__vector_16>:
void uart_putchar(uint8_t data);
struct ring_buffer ring_buffer_out;
struct ring_buffer ring_buffer_in;
/****************************************************************************/
ISR(TIMER0_OVF_vect)// tick timer (10ms)
{
    1a94:	1f 92       	push	r1
    1a96:	0f 92       	push	r0
    1a98:	0f b6       	in	r0, 0x3f	; 63
    1a9a:	0f 92       	push	r0
    1a9c:	11 24       	eor	r1, r1
    1a9e:	2f 93       	push	r18
    1aa0:	3f 93       	push	r19
    1aa2:	4f 93       	push	r20
    1aa4:	5f 93       	push	r21
    1aa6:	6f 93       	push	r22
    1aa8:	7f 93       	push	r23
    1aaa:	8f 93       	push	r24
    1aac:	9f 93       	push	r25
    1aae:	af 93       	push	r26
    1ab0:	bf 93       	push	r27
    1ab2:	ef 93       	push	r30
    1ab4:	ff 93       	push	r31
	TICK_TIMER_COUNTER=TICK_TIMER_RELOAD;
    1ab6:	83 e6       	ldi	r24, 0x63	; 99
	Tick_Timer_Process();
    1ab8:	86 bd       	out	0x26, r24	; 38
}
    1aba:	7f d5       	rcall	.+2814   	; 0x25ba <Tick_Timer_Process>
    1abc:	ff 91       	pop	r31
    1abe:	ef 91       	pop	r30
    1ac0:	bf 91       	pop	r27
    1ac2:	af 91       	pop	r26
    1ac4:	9f 91       	pop	r25
    1ac6:	8f 91       	pop	r24
    1ac8:	7f 91       	pop	r23
    1aca:	6f 91       	pop	r22
    1acc:	5f 91       	pop	r21
    1ace:	4f 91       	pop	r20
    1ad0:	3f 91       	pop	r19
    1ad2:	2f 91       	pop	r18
    1ad4:	0f 90       	pop	r0
    1ad6:	0f be       	out	0x3f, r0	; 63
    1ad8:	0f 90       	pop	r0
    1ada:	1f 90       	pop	r1
    1adc:	18 95       	reti

00001ade <__vector_13>:
/****************************************************************************/
ISR(TIMER1_OVF_vect) // second timer (1sn)
{
    1ade:	1f 92       	push	r1
    1ae0:	0f 92       	push	r0
    1ae2:	0f b6       	in	r0, 0x3f	; 63
    1ae4:	0f 92       	push	r0
    1ae6:	11 24       	eor	r1, r1
    1ae8:	cf 92       	push	r12
    1aea:	df 92       	push	r13
    1aec:	ff 92       	push	r15
    1aee:	0f 93       	push	r16
    1af0:	1f 93       	push	r17
    1af2:	2f 93       	push	r18
    1af4:	3f 93       	push	r19
    1af6:	4f 93       	push	r20
    1af8:	5f 93       	push	r21
    1afa:	6f 93       	push	r22
    1afc:	7f 93       	push	r23
    1afe:	8f 93       	push	r24
    1b00:	9f 93       	push	r25
    1b02:	af 93       	push	r26
    1b04:	bf 93       	push	r27
    1b06:	ef 93       	push	r30
    1b08:	ff 93       	push	r31
    1b0a:	cf 93       	push	r28
    1b0c:	df 93       	push	r29
    1b0e:	1f 92       	push	r1
    1b10:	cd b7       	in	r28, 0x3d	; 61
    1b12:	de b7       	in	r29, 0x3e	; 62
	static uint8_t kont=0;
	uint8_t i;

	SEC_TIMER_COUNTER = SEC_TIMER_RELOAD;
    1b14:	8b ef       	ldi	r24, 0xFB	; 251
    1b16:	9b e0       	ldi	r25, 0x0B	; 11
    1b18:	90 93 85 00 	sts	0x0085, r25	; 0x800085 <__TEXT_REGION_LENGTH__+0x7e0085>
    1b1c:	80 93 84 00 	sts	0x0084, r24	; 0x800084 <__TEXT_REGION_LENGTH__+0x7e0084>
	
	Second_Timer_Process();
	
	calendar_add_second_to_date(&real_date);
    1b20:	4f d5       	rcall	.+2718   	; 0x25c0 <Second_Timer_Process>
    1b22:	8e e3       	ldi	r24, 0x3E	; 62
    1b24:	91 e0       	ldi	r25, 0x01	; 1
	
	if(kont++ ==3)
    1b26:	f0 de       	rcall	.-544    	; 0x1908 <calendar_add_second_to_date>
    1b28:	90 91 9b 03 	lds	r25, 0x039B	; 0x80039b <kont.3554>
    1b2c:	81 e0       	ldi	r24, 0x01	; 1
    1b2e:	89 0f       	add	r24, r25
    1b30:	80 93 9b 03 	sts	0x039B, r24	; 0x80039b <kont.3554>
    1b34:	93 30       	cpi	r25, 0x03	; 3
	{
		cpu_measurement_restart=true;		
    1b36:	19 f4       	brne	.+6      	; 0x1b3e <__vector_13+0x60>
    1b38:	91 e0       	ldi	r25, 0x01	; 1
    1b3a:	90 93 50 01 	sts	0x0150, r25	; 0x800150 <cpu_measurement_restart>
	xprintf("dlyed = %d \r",cpu_status);*/
	
	//xprintf("T0 = %d \r",TICK_TIMER_COUNTER);
	//xprintf("T2 = %d \r",CPU_TIMER_COUNTER);
	
	 if(kont>2)
    1b3e:	83 30       	cpi	r24, 0x03	; 3
    1b40:	08 f4       	brcc	.+2      	; 0x1b44 <__vector_13+0x66>
	 {
		 i=CPU_PERCENT_AVG;
    1b42:	66 c0       	rjmp	.+204    	; 0x1c10 <__vector_13+0x132>
    1b44:	20 91 3a 04 	lds	r18, 0x043A	; 0x80043a <cpu_avg>
    1b48:	30 91 3b 04 	lds	r19, 0x043B	; 0x80043b <cpu_avg+0x1>
    1b4c:	40 91 3c 04 	lds	r20, 0x043C	; 0x80043c <cpu_avg+0x2>
    1b50:	50 91 3d 04 	lds	r21, 0x043D	; 0x80043d <cpu_avg+0x3>
    1b54:	a4 e6       	ldi	r26, 0x64	; 100
    1b56:	b0 e0       	ldi	r27, 0x00	; 0
    1b58:	9b d5       	rcall	.+2870   	; 0x2690 <__muluhisi3>
    1b5a:	2c e9       	ldi	r18, 0x9C	; 156
    1b5c:	30 e0       	ldi	r19, 0x00	; 0
    1b5e:	40 e0       	ldi	r20, 0x00	; 0
    1b60:	50 e0       	ldi	r21, 0x00	; 0
    1b62:	5f d5       	rcall	.+2750   	; 0x2622 <__udivmodsi4>
		 adp_transceive_single_stream(STREAM_ID_CPU_USAGE,&i , 1, receive_packet_data);
    1b64:	29 83       	std	Y+1, r18	; 0x01
    1b66:	2c e9       	ldi	r18, 0x9C	; 156
    1b68:	33 e0       	ldi	r19, 0x03	; 3
    1b6a:	41 e0       	ldi	r20, 0x01	; 1
    1b6c:	be 01       	movw	r22, r28
    1b6e:	6f 5f       	subi	r22, 0xFF	; 255
    1b70:	7f 4f       	sbci	r23, 0xFF	; 255
    1b72:	81 e0       	ldi	r24, 0x01	; 1
    1b74:	90 e0       	ldi	r25, 0x00	; 0
		 sprintf(receive_packet_data,"Cpu_Max:%%%d\r",CPU_PERCENT_MAX);
    1b76:	a1 dd       	rcall	.-1214   	; 0x16ba <adp_transceive_single_stream>
    1b78:	80 91 34 04 	lds	r24, 0x0434	; 0x800434 <cpu_max>
    1b7c:	0f 2e       	mov	r0, r31
    1b7e:	f4 e6       	ldi	r31, 0x64	; 100
    1b80:	ff 2e       	mov	r15, r31
    1b82:	f0 2d       	mov	r31, r0
    1b84:	f8 9e       	mul	r15, r24
    1b86:	c0 01       	movw	r24, r0
    1b88:	11 24       	eor	r1, r1
    1b8a:	0f 2e       	mov	r0, r31
    1b8c:	fc e9       	ldi	r31, 0x9C	; 156
    1b8e:	cf 2e       	mov	r12, r31
    1b90:	d1 2c       	mov	r13, r1
    1b92:	f0 2d       	mov	r31, r0
    1b94:	b6 01       	movw	r22, r12
    1b96:	32 d5       	rcall	.+2660   	; 0x25fc <__divmodhi4>
    1b98:	77 27       	eor	r23, r23
    1b9a:	7f 93       	push	r23
    1b9c:	6f 93       	push	r22
    1b9e:	83 e4       	ldi	r24, 0x43	; 67
    1ba0:	92 e0       	ldi	r25, 0x02	; 2
    1ba2:	9f 93       	push	r25
    1ba4:	8f 93       	push	r24
    1ba6:	0c e9       	ldi	r16, 0x9C	; 156
    1ba8:	13 e0       	ldi	r17, 0x03	; 3
    1baa:	1f 93       	push	r17
    1bac:	0f 93       	push	r16
		 adp_transceive_single_stream(STREAM_ID_STATUS_MESSAGE,receive_packet_data,strlen(receive_packet_data),receive_packet_data);
    1bae:	ca d5       	rcall	.+2964   	; 0x2744 <sprintf>
    1bb0:	f8 01       	movw	r30, r16
    1bb2:	01 90       	ld	r0, Z+
    1bb4:	00 20       	and	r0, r0
    1bb6:	e9 f7       	brne	.-6      	; 0x1bb2 <__vector_13+0xd4>
    1bb8:	31 97       	sbiw	r30, 0x01	; 1
    1bba:	af 01       	movw	r20, r30
    1bbc:	4c 59       	subi	r20, 0x9C	; 156
    1bbe:	53 40       	sbci	r21, 0x03	; 3
    1bc0:	98 01       	movw	r18, r16
    1bc2:	b8 01       	movw	r22, r16
    1bc4:	80 e0       	ldi	r24, 0x00	; 0
		 sprintf(receive_packet_data,"Cpu_Min:%%%d\r\r",CPU_PERCENT_MIN);
    1bc6:	90 e0       	ldi	r25, 0x00	; 0
    1bc8:	78 dd       	rcall	.-1296   	; 0x16ba <adp_transceive_single_stream>
    1bca:	80 91 3e 04 	lds	r24, 0x043E	; 0x80043e <cpu_min>
    1bce:	f8 9e       	mul	r15, r24
    1bd0:	c0 01       	movw	r24, r0
    1bd2:	11 24       	eor	r1, r1
    1bd4:	b6 01       	movw	r22, r12
    1bd6:	12 d5       	rcall	.+2596   	; 0x25fc <__divmodhi4>
    1bd8:	77 27       	eor	r23, r23
    1bda:	7f 93       	push	r23
    1bdc:	6f 93       	push	r22
    1bde:	81 e5       	ldi	r24, 0x51	; 81
    1be0:	92 e0       	ldi	r25, 0x02	; 2
    1be2:	9f 93       	push	r25
    1be4:	8f 93       	push	r24
    1be6:	1f 93       	push	r17
    1be8:	0f 93       	push	r16
		 adp_transceive_single_stream(STREAM_ID_STATUS_MESSAGE,receive_packet_data,strlen(receive_packet_data),receive_packet_data);
    1bea:	ac d5       	rcall	.+2904   	; 0x2744 <sprintf>
    1bec:	f8 01       	movw	r30, r16
    1bee:	01 90       	ld	r0, Z+
    1bf0:	00 20       	and	r0, r0
    1bf2:	e9 f7       	brne	.-6      	; 0x1bee <__vector_13+0x110>
    1bf4:	31 97       	sbiw	r30, 0x01	; 1
    1bf6:	af 01       	movw	r20, r30
    1bf8:	4c 59       	subi	r20, 0x9C	; 156
    1bfa:	53 40       	sbci	r21, 0x03	; 3
    1bfc:	98 01       	movw	r18, r16
    1bfe:	b8 01       	movw	r22, r16
    1c00:	80 e0       	ldi	r24, 0x00	; 0
    1c02:	90 e0       	ldi	r25, 0x00	; 0
    1c04:	5a dd       	rcall	.-1356   	; 0x16ba <adp_transceive_single_stream>
    1c06:	0f b6       	in	r0, 0x3f	; 63
    1c08:	f8 94       	cli
    1c0a:	de bf       	out	0x3e, r29	; 62
    1c0c:	0f be       	out	0x3f, r0	; 63
	 }
	
}
    1c0e:	cd bf       	out	0x3d, r28	; 61
    1c10:	0f 90       	pop	r0
    1c12:	df 91       	pop	r29
    1c14:	cf 91       	pop	r28
    1c16:	ff 91       	pop	r31
    1c18:	ef 91       	pop	r30
    1c1a:	bf 91       	pop	r27
    1c1c:	af 91       	pop	r26
    1c1e:	9f 91       	pop	r25
    1c20:	8f 91       	pop	r24
    1c22:	7f 91       	pop	r23
    1c24:	6f 91       	pop	r22
    1c26:	5f 91       	pop	r21
    1c28:	4f 91       	pop	r20
    1c2a:	3f 91       	pop	r19
    1c2c:	2f 91       	pop	r18
    1c2e:	1f 91       	pop	r17
    1c30:	0f 91       	pop	r16
    1c32:	ff 90       	pop	r15
    1c34:	df 90       	pop	r13
    1c36:	cf 90       	pop	r12
    1c38:	0f 90       	pop	r0
    1c3a:	0f be       	out	0x3f, r0	; 63
    1c3c:	0f 90       	pop	r0
    1c3e:	1f 90       	pop	r1
    1c40:	18 95       	reti

00001c42 <__vector_19>:
/****************************************************************************/
ISR(UART0_DATA_EMPTY_IRQ)
{
    1c42:	1f 92       	push	r1
    1c44:	0f 92       	push	r0
    1c46:	0f b6       	in	r0, 0x3f	; 63
    1c48:	0f 92       	push	r0
    1c4a:	11 24       	eor	r1, r1
    1c4c:	2f 93       	push	r18
    1c4e:	3f 93       	push	r19
    1c50:	4f 93       	push	r20
    1c52:	5f 93       	push	r21
    1c54:	8f 93       	push	r24
    1c56:	9f 93       	push	r25
    1c58:	af 93       	push	r26
    1c5a:	bf 93       	push	r27
    1c5c:	ef 93       	push	r30
    1c5e:	ff 93       	push	r31
 * \retval true   if the buffer is empty
 * \retval false  if there is still data in the buffer
 */
static inline bool ring_buffer_is_empty(const struct ring_buffer *ring)
{
	return (ring->read_offset == ring->write_offset);
    1c60:	ef e3       	ldi	r30, 0x3F	; 63
    1c62:	f4 e0       	ldi	r31, 0x04	; 4
    1c64:	91 81       	ldd	r25, Z+1	; 0x01
    1c66:	80 81       	ld	r24, Z
	// if there is data in the ring buffer, fetch it and send it
	if (!ring_buffer_is_empty(&ring_buffer_out)) {
    1c68:	98 17       	cp	r25, r24
    1c6a:	b9 f0       	breq	.+46     	; 0x1c9a <__vector_19+0x58>
 * \returns next data byte in buffer
 */
static inline uint8_t ring_buffer_get(struct ring_buffer *ring)
{
	Assert(!ring_buffer_is_empty(ring));
	uint8_t data = ring->buffer[ring->read_offset];
    1c6c:	81 81       	ldd	r24, Z+1	; 0x01
    1c6e:	a3 81       	ldd	r26, Z+3	; 0x03
    1c70:	b4 81       	ldd	r27, Z+4	; 0x04
    1c72:	a8 0f       	add	r26, r24
    1c74:	b1 1d       	adc	r27, r1
    1c76:	3c 91       	ld	r19, X
 *
 * \returns the next read offset in the ring buffer
 */
static inline uint8_t ring_buffer_get_next_read(const struct ring_buffer *ring)
{
	return get_next(ring->read_offset, ring->size);
    1c78:	21 81       	ldd	r18, Z+1	; 0x01
 *
 * \returns next offset or 0 if we are wrapping
 */
static inline uint8_t get_next(uint8_t cur_offset, uint8_t size)
{
	return (cur_offset == (size - 1) ? 0 : cur_offset + 1);
    1c7a:	42 2f       	mov	r20, r18
    1c7c:	50 e0       	ldi	r21, 0x00	; 0
    1c7e:	82 81       	ldd	r24, Z+2	; 0x02
    1c80:	90 e0       	ldi	r25, 0x00	; 0
    1c82:	01 97       	sbiw	r24, 0x01	; 1
    1c84:	48 17       	cp	r20, r24
    1c86:	59 07       	cpc	r21, r25
    1c88:	11 f0       	breq	.+4      	; 0x1c8e <__vector_19+0x4c>
    1c8a:	2f 5f       	subi	r18, 0xFF	; 255
    1c8c:	01 c0       	rjmp	.+2      	; 0x1c90 <__vector_19+0x4e>
    1c8e:	20 e0       	ldi	r18, 0x00	; 0
 */
static inline uint8_t ring_buffer_get(struct ring_buffer *ring)
{
	Assert(!ring_buffer_is_empty(ring));
	uint8_t data = ring->buffer[ring->read_offset];
	ring->read_offset = ring_buffer_get_next_read(ring);
    1c90:	20 93 40 04 	sts	0x0440, r18	; 0x800440 <ring_buffer_out+0x1>
		UDR0 = ring_buffer_get(&ring_buffer_out);
    1c94:	30 93 c6 00 	sts	0x00C6, r19	; 0x8000c6 <__TEXT_REGION_LENGTH__+0x7e00c6>
    1c98:	05 c0       	rjmp	.+10     	; 0x1ca4 <__vector_19+0x62>
	}
	else {
		// no more data to send, turn off data ready interrupt
		UCSR0B &= ~(1 << UDRIE0);
    1c9a:	e1 ec       	ldi	r30, 0xC1	; 193
    1c9c:	f0 e0       	ldi	r31, 0x00	; 0
    1c9e:	80 81       	ld	r24, Z
    1ca0:	8f 7d       	andi	r24, 0xDF	; 223
    1ca2:	80 83       	st	Z, r24
	}
}
    1ca4:	ff 91       	pop	r31
    1ca6:	ef 91       	pop	r30
    1ca8:	bf 91       	pop	r27
    1caa:	af 91       	pop	r26
    1cac:	9f 91       	pop	r25
    1cae:	8f 91       	pop	r24
    1cb0:	5f 91       	pop	r21
    1cb2:	4f 91       	pop	r20
    1cb4:	3f 91       	pop	r19
    1cb6:	2f 91       	pop	r18
    1cb8:	0f 90       	pop	r0
    1cba:	0f be       	out	0x3f, r0	; 63
    1cbc:	0f 90       	pop	r0
    1cbe:	1f 90       	pop	r1
    1cc0:	18 95       	reti

00001cc2 <__vector_18>:
/****************************************************************************/
ISR(UART0_RX_IRQ)
{
    1cc2:	1f 92       	push	r1
    1cc4:	0f 92       	push	r0
    1cc6:	0f b6       	in	r0, 0x3f	; 63
    1cc8:	0f 92       	push	r0
    1cca:	11 24       	eor	r1, r1
    1ccc:	2f 93       	push	r18
    1cce:	4f 93       	push	r20
    1cd0:	5f 93       	push	r21
    1cd2:	8f 93       	push	r24
    1cd4:	9f 93       	push	r25
    1cd6:	af 93       	push	r26
    1cd8:	bf 93       	push	r27
    1cda:	ef 93       	push	r30
    1cdc:	ff 93       	push	r31
	ring_buffer_put(&ring_buffer_in, UDR0);
    1cde:	80 91 c6 00 	lds	r24, 0x00C6	; 0x8000c6 <__TEXT_REGION_LENGTH__+0x7e00c6>
 *
 */
static inline void ring_buffer_put(struct ring_buffer *ring, uint8_t data)
{
	Assert(!ring_buffer_is_full(ring));
	ring->buffer[ring->write_offset] = data;
    1ce2:	e5 e3       	ldi	r30, 0x35	; 53
    1ce4:	f4 e0       	ldi	r31, 0x04	; 4
    1ce6:	90 81       	ld	r25, Z
    1ce8:	a3 81       	ldd	r26, Z+3	; 0x03
    1cea:	b4 81       	ldd	r27, Z+4	; 0x04
    1cec:	a9 0f       	add	r26, r25
    1cee:	b1 1d       	adc	r27, r1
    1cf0:	8c 93       	st	X, r24
 *
 * \returns the next write offset in the ring buffer
 */
static inline uint8_t ring_buffer_get_next_write(const struct ring_buffer *ring)
{
	return get_next(ring->write_offset, ring->size);
    1cf2:	20 81       	ld	r18, Z
 *
 * \returns next offset or 0 if we are wrapping
 */
static inline uint8_t get_next(uint8_t cur_offset, uint8_t size)
{
	return (cur_offset == (size - 1) ? 0 : cur_offset + 1);
    1cf4:	42 2f       	mov	r20, r18
    1cf6:	50 e0       	ldi	r21, 0x00	; 0
    1cf8:	82 81       	ldd	r24, Z+2	; 0x02
    1cfa:	90 e0       	ldi	r25, 0x00	; 0
    1cfc:	01 97       	sbiw	r24, 0x01	; 1
    1cfe:	48 17       	cp	r20, r24
    1d00:	59 07       	cpc	r21, r25
    1d02:	11 f0       	breq	.+4      	; 0x1d08 <__vector_18+0x46>
    1d04:	2f 5f       	subi	r18, 0xFF	; 255
    1d06:	01 c0       	rjmp	.+2      	; 0x1d0a <__vector_18+0x48>
    1d08:	20 e0       	ldi	r18, 0x00	; 0
 */
static inline void ring_buffer_put(struct ring_buffer *ring, uint8_t data)
{
	Assert(!ring_buffer_is_full(ring));
	ring->buffer[ring->write_offset] = data;
	ring->write_offset = ring_buffer_get_next_write(ring);
    1d0a:	20 93 35 04 	sts	0x0435, r18	; 0x800435 <ring_buffer_in>
}
    1d0e:	ff 91       	pop	r31
    1d10:	ef 91       	pop	r30
    1d12:	bf 91       	pop	r27
    1d14:	af 91       	pop	r26
    1d16:	9f 91       	pop	r25
    1d18:	8f 91       	pop	r24
    1d1a:	5f 91       	pop	r21
    1d1c:	4f 91       	pop	r20
    1d1e:	2f 91       	pop	r18
    1d20:	0f 90       	pop	r0
    1d22:	0f be       	out	0x3f, r0	; 63
    1d24:	0f 90       	pop	r0
    1d26:	1f 90       	pop	r1
    1d28:	18 95       	reti

00001d2a <adp_window_add_terminal>:
	TCCR2A=0x00;
	TCCR2B=0x07;  // Timer mode with 1024 prescler (clock böleni en tick timer böleni ile ayný olmalýdýr.)
}
/****************************************************************************/
void adp_window_add_terminal(void)
{
    1d2a:	cf 93       	push	r28
    1d2c:	df 93       	push	r29
    1d2e:	cd b7       	in	r28, 0x3d	; 61
    1d30:	de b7       	in	r29, 0x3e	; 62
    1d32:	60 97       	sbiw	r28, 0x10	; 16
    1d34:	0f b6       	in	r0, 0x3f	; 63
    1d36:	f8 94       	cli
    1d38:	de bf       	out	0x3e, r29	; 62
    1d3a:	0f be       	out	0x3f, r0	; 63
    1d3c:	cd bf       	out	0x3d, r28	; 61
	//terminal_config.height = 50;
	//memcpy(terminal_config.background_color, ADP_COLOR_WHITE, 3);
	//memcpy(terminal_config.foreground_color, ADP_COLOR_GREEN, 3);
	
	/* Add terminal stream */
	stream.stream_id = STREAM_ID_STATUS_MESSAGE;
    1d3e:	1a 82       	std	Y+2, r1	; 0x02
    1d40:	19 82       	std	Y+1, r1	; 0x01
	stream.type = ADP_STREAM_UINT_8;
    1d42:	82 e0       	ldi	r24, 0x02	; 2
    1d44:	8b 83       	std	Y+3, r24	; 0x03
	stream.mode = ADP_STREAM_OUT;
    1d46:	8c 83       	std	Y+4, r24	; 0x04
	stream.state = ADP_STREAM_ON;
    1d48:	81 e0       	ldi	r24, 0x01	; 1
    1d4a:	8d 83       	std	Y+5, r24	; 0x05
	
	adp_configure_stream(&stream, "Status messages");
    1d4c:	60 e6       	ldi	r22, 0x60	; 96
    1d4e:	72 e0       	ldi	r23, 0x02	; 2
    1d50:	ce 01       	movw	r24, r28
    1d52:	01 96       	adiw	r24, 0x01	; 1
    1d54:	a3 d8       	rcall	.-3770   	; 0xe9c <adp_configure_stream>
	
	adp_configure_terminal(&terminal_config, "Status terminal");
    1d56:	60 e7       	ldi	r22, 0x70	; 112
    1d58:	72 e0       	ldi	r23, 0x02	; 2
    1d5a:	86 e4       	ldi	r24, 0x46	; 70
    1d5c:	91 e0       	ldi	r25, 0x01	; 1
    1d5e:	33 d9       	rcall	.-3482   	; 0xfc6 <adp_configure_terminal>
	
	/* Connect stream and terminal */
	struct adp_msg_add_stream_to_terminal conf_stream = {
    1d60:	8b e0       	ldi	r24, 0x0B	; 11
    1d62:	e5 e6       	ldi	r30, 0x65	; 101
    1d64:	f1 e0       	ldi	r31, 0x01	; 1
    1d66:	de 01       	movw	r26, r28
    1d68:	16 96       	adiw	r26, 0x06	; 6
    1d6a:	01 90       	ld	r0, Z+
    1d6c:	0d 92       	st	X+, r0
    1d6e:	8a 95       	dec	r24
    1d70:	e1 f7       	brne	.-8      	; 0x1d6a <adp_window_add_terminal+0x40>
		.stream_id = STREAM_ID_STATUS_MESSAGE,
		.mode = 0xFF,
		.text_color = {ADP_COLOR_RED},
		.tag_text_color = {ADP_COLOR_BLACK}
	};
	adp_add_stream_to_terminal(&conf_stream, "Status messages");
    1d72:	60 e6       	ldi	r22, 0x60	; 96
    1d74:	72 e0       	ldi	r23, 0x02	; 2
    1d76:	ce 01       	movw	r24, r28
    1d78:	06 96       	adiw	r24, 0x06	; 6
    1d7a:	aa d9       	rcall	.-3244   	; 0x10d0 <adp_add_stream_to_terminal>
}
    1d7c:	60 96       	adiw	r28, 0x10	; 16
    1d7e:	0f b6       	in	r0, 0x3f	; 63
    1d80:	f8 94       	cli
    1d82:	de bf       	out	0x3e, r29	; 62
    1d84:	0f be       	out	0x3f, r0	; 63
    1d86:	cd bf       	out	0x3d, r28	; 61
    1d88:	df 91       	pop	r29
    1d8a:	cf 91       	pop	r28
    1d8c:	08 95       	ret

00001d8e <adp_window_add_dashboard_control>:
/****************************************************************************/
void adp_window_add_dashboard_control(void)
{
    1d8e:	af 92       	push	r10
    1d90:	bf 92       	push	r11
    1d92:	cf 92       	push	r12
    1d94:	df 92       	push	r13
    1d96:	ef 92       	push	r14
    1d98:	ff 92       	push	r15
    1d9a:	0f 93       	push	r16
    1d9c:	1f 93       	push	r17
    1d9e:	cf 93       	push	r28
    1da0:	df 93       	push	r29
    1da2:	cd b7       	in	r28, 0x3d	; 61
    1da4:	de b7       	in	r29, 0x3e	; 62
    1da6:	eb 97       	sbiw	r28, 0x3b	; 59
    1da8:	0f b6       	in	r0, 0x3f	; 63
    1daa:	f8 94       	cli
    1dac:	de bf       	out	0x3e, r29	; 62
    1dae:	0f be       	out	0x3f, r0	; 63
    1db0:	cd bf       	out	0x3d, r28	; 61
	/* Add a dashboard */
	struct adp_msg_conf_dashboard dashboard_con = {
    1db2:	87 e0       	ldi	r24, 0x07	; 7
    1db4:	e0 e7       	ldi	r30, 0x70	; 112
    1db6:	f1 e0       	ldi	r31, 0x01	; 1
    1db8:	de 01       	movw	r26, r28
    1dba:	11 96       	adiw	r26, 0x01	; 1
    1dbc:	01 90       	ld	r0, Z+
    1dbe:	0d 92       	st	X+, r0
    1dc0:	8a 95       	dec	r24
    1dc2:	e1 f7       	brne	.-8      	; 0x1dbc <adp_window_add_dashboard_control+0x2e>
		.dashboard_id = DASHBOARD_ID_CPU_USAGE,
		.color = {ADP_COLOR_WHITE},
		.height = 300,
	};
	adp_add_dashboard(&dashboard_con, "Genel");
    1dc4:	60 e8       	ldi	r22, 0x80	; 128
    1dc6:	72 e0       	ldi	r23, 0x02	; 2
    1dc8:	ce 01       	movw	r24, r28
    1dca:	01 96       	adiw	r24, 0x01	; 1
    1dcc:	1e da       	rcall	.-3012   	; 0x120a <adp_add_dashboard>
	
	struct adp_msg_configure_stream stream;
	struct adp_conf_add_stream_to_element element_stream = {
    1dce:	0f 2e       	mov	r0, r31
    1dd0:	f6 e0       	ldi	r31, 0x06	; 6
    1dd2:	af 2e       	mov	r10, r31
    1dd4:	f0 2d       	mov	r31, r0
    1dd6:	8e 01       	movw	r16, r28
    1dd8:	03 5f       	subi	r16, 0xF3	; 243
    1dda:	1f 4f       	sbci	r17, 0xFF	; 255
    1ddc:	d8 01       	movw	r26, r16
    1dde:	ea 2d       	mov	r30, r10
    1de0:	1d 92       	st	X+, r1
    1de2:	ea 95       	dec	r30
    1de4:	e9 f7       	brne	.-6      	; 0x1de0 <adp_window_add_dashboard_control+0x52>
		.dashboard_id = DASHBOARD_ID_CPU_USAGE,
	};
	
	/* Add segment to dashboard, use light sensor stream */
	/* Add segment stream(light sensor ADC value) */
	stream.stream_id = STREAM_ID_CPU_USAGE;
    1de6:	ee 24       	eor	r14, r14
    1de8:	e3 94       	inc	r14
    1dea:	f1 2c       	mov	r15, r1
    1dec:	f9 86       	std	Y+9, r15	; 0x09
    1dee:	e8 86       	std	Y+8, r14	; 0x08
	stream.type = ADP_STREAM_UINT_8;
    1df0:	82 e0       	ldi	r24, 0x02	; 2
    1df2:	8a 87       	std	Y+10, r24	; 0x0a
	stream.mode = ADP_STREAM_OUT;
    1df4:	8b 87       	std	Y+11, r24	; 0x0b
	stream.state = ADP_STREAM_ON;
    1df6:	bb 24       	eor	r11, r11
    1df8:	b3 94       	inc	r11
    1dfa:	bc 86       	std	Y+12, r11	; 0x0c
	adp_configure_stream(&stream, "CPU Usage Value");
    1dfc:	66 e8       	ldi	r22, 0x86	; 134
    1dfe:	72 e0       	ldi	r23, 0x02	; 2
    1e00:	ce 01       	movw	r24, r28
    1e02:	08 96       	adiw	r24, 0x08	; 8
    1e04:	4b d8       	rcall	.-3946   	; 0xe9c <adp_configure_stream>
	
	/* Add a graph to dashboard */
	struct adp_msg_conf_dashboard_element_graph graph_value = {
    1e06:	fe 01       	movw	r30, r28
    1e08:	73 96       	adiw	r30, 0x13	; 19
    1e0a:	89 e2       	ldi	r24, 0x29	; 41
    1e0c:	df 01       	movw	r26, r30
    1e0e:	1d 92       	st	X+, r1
    1e10:	8a 95       	dec	r24
    1e12:	e9 f7       	brne	.-6      	; 0x1e0e <adp_window_add_dashboard_control+0x80>
    1e14:	0f 2e       	mov	r0, r31
    1e16:	f7 e0       	ldi	r31, 0x07	; 7
    1e18:	cf 2e       	mov	r12, r31
    1e1a:	d1 2c       	mov	r13, r1
    1e1c:	f0 2d       	mov	r31, r0
    1e1e:	de 8a       	std	Y+22, r13	; 0x16
    1e20:	cd 8a       	std	Y+21, r12	; 0x15
    1e22:	86 e3       	ldi	r24, 0x36	; 54
    1e24:	91 e0       	ldi	r25, 0x01	; 1
    1e26:	99 8f       	std	Y+25, r25	; 0x19
    1e28:	88 8f       	std	Y+24, r24	; 0x18
    1e2a:	8a e0       	ldi	r24, 0x0A	; 10
    1e2c:	90 e0       	ldi	r25, 0x00	; 0
    1e2e:	9b 8f       	std	Y+27, r25	; 0x1b
    1e30:	8a 8f       	std	Y+26, r24	; 0x1a
    1e32:	80 e4       	ldi	r24, 0x40	; 64
    1e34:	91 e0       	ldi	r25, 0x01	; 1
    1e36:	9d 8f       	std	Y+29, r25	; 0x1d
    1e38:	8c 8f       	std	Y+28, r24	; 0x1c
    1e3a:	80 ef       	ldi	r24, 0xF0	; 240
    1e3c:	90 e0       	ldi	r25, 0x00	; 0
    1e3e:	9f 8f       	std	Y+31, r25	; 0x1f
    1e40:	8e 8f       	std	Y+30, r24	; 0x1e
    1e42:	a8 a2       	std	Y+32, r10	; 0x20
    1e44:	9f ef       	ldi	r25, 0xFF	; 255
    1e46:	99 a3       	std	Y+33, r25	; 0x21
    1e48:	9a a3       	std	Y+34, r25	; 0x22
    1e4a:	9b a3       	std	Y+35, r25	; 0x23
    1e4c:	ba a6       	std	Y+42, r11	; 0x2a
    1e4e:	80 e0       	ldi	r24, 0x00	; 0
    1e50:	90 e0       	ldi	r25, 0x00	; 0
    1e52:	a0 e2       	ldi	r26, 0x20	; 32
    1e54:	b1 e4       	ldi	r27, 0x41	; 65
    1e56:	8f a7       	std	Y+47, r24	; 0x2f
    1e58:	98 ab       	std	Y+48, r25	; 0x30
    1e5a:	a9 ab       	std	Y+49, r26	; 0x31
    1e5c:	ba ab       	std	Y+50, r27	; 0x32
    1e5e:	80 e0       	ldi	r24, 0x00	; 0
    1e60:	90 e0       	ldi	r25, 0x00	; 0
    1e62:	af e7       	ldi	r26, 0x7F	; 127
    1e64:	b3 e4       	ldi	r27, 0x43	; 67
    1e66:	8f ab       	std	Y+55, r24	; 0x37
    1e68:	98 af       	std	Y+56, r25	; 0x38
    1e6a:	a9 af       	std	Y+57, r26	; 0x39
    1e6c:	ba af       	std	Y+58, r27	; 0x3a
		.y_min = 0,
		.y_max = 255,
		.mode.bit.mouse = 0,
		.mode.bit.fit_graph = 0,
	};
	adp_add_graph_to_dashboard(&graph_value, "CPU Usage");
    1e6e:	66 e9       	ldi	r22, 0x96	; 150
    1e70:	72 e0       	ldi	r23, 0x02	; 2
    1e72:	cf 01       	movw	r24, r30
    1e74:	57 da       	rcall	.-2898   	; 0x1324 <adp_add_graph_to_dashboard>
	
	element_stream.element_id = ELEMENT_ID_GRAPH;
    1e76:	d8 8a       	std	Y+16, r13	; 0x10
    1e78:	cf 86       	std	Y+15, r12	; 0x0f
	element_stream.stream_id = STREAM_ID_CPU_USAGE;
    1e7a:	fa 8a       	std	Y+18, r15	; 0x12
	adp_add_stream_to_element(&element_stream);
    1e7c:	e9 8a       	std	Y+17, r14	; 0x11
    1e7e:	c8 01       	movw	r24, r16
    1e80:	15 db       	rcall	.-2518   	; 0x14ac <adp_add_stream_to_element>
	
}
    1e82:	eb 96       	adiw	r28, 0x3b	; 59
    1e84:	0f b6       	in	r0, 0x3f	; 63
    1e86:	f8 94       	cli
    1e88:	de bf       	out	0x3e, r29	; 62
    1e8a:	0f be       	out	0x3f, r0	; 63
    1e8c:	cd bf       	out	0x3d, r28	; 61
    1e8e:	df 91       	pop	r29
    1e90:	cf 91       	pop	r28
    1e92:	1f 91       	pop	r17
    1e94:	0f 91       	pop	r16
    1e96:	ff 90       	pop	r15
    1e98:	ef 90       	pop	r14
    1e9a:	df 90       	pop	r13
    1e9c:	cf 90       	pop	r12
    1e9e:	bf 90       	pop	r11
    1ea0:	af 90       	pop	r10
    1ea2:	08 95       	ret

00001ea4 <Cpu_Measurement>:
/****************************************************************************/
void Cpu_Measurement(void)
{
    1ea4:	0f 93       	push	r16
    1ea6:	1f 93       	push	r17
    1ea8:	cf 93       	push	r28
	static uint8_t cpu_timer_t;
	static uint32_t cpu_avg_t,cpu_cycle;
	uint8_t temp,cpu_timer;

	cpu_timer=CPU_TIMER_COUNTER;// timer counter hep buradan okunur
    1eaa:	c0 91 b2 00 	lds	r28, 0x00B2	; 0x8000b2 <__TEXT_REGION_LENGTH__+0x7e00b2>

	if(cpu_measurement_restart==false)// eger resetleme olursa yada ilk baslangýc ise ilk deger temp de tutulacagý için flag kullanýlýr
    1eae:	80 91 50 01 	lds	r24, 0x0150	; 0x800150 <cpu_measurement_restart>
    1eb2:	81 11       	cpse	r24, r1
    1eb4:	63 c0       	rjmp	.+198    	; 0x1f7c <Cpu_Measurement+0xd8>
	{
		if(cpu_timer >= cpu_timer_t)
    1eb6:	80 91 9a 03 	lds	r24, 0x039A	; 0x80039a <cpu_timer_t.3604>
    1eba:	c8 17       	cp	r28, r24
    1ebc:	20 f0       	brcs	.+8      	; 0x1ec6 <Cpu_Measurement+0x22>
		{
			temp= cpu_timer - cpu_timer_t;
    1ebe:	0c 2f       	mov	r16, r28
    1ec0:	08 1b       	sub	r16, r24
    1ec2:	80 2f       	mov	r24, r16
    1ec4:	02 c0       	rjmp	.+4      	; 0x1eca <Cpu_Measurement+0x26>
		}
		else
		{
			temp= cpu_timer_t - cpu_timer;
    1ec6:	8c 1b       	sub	r24, r28
			temp= CPU_TIMER_PERIOD - temp;
    1ec8:	80 95       	com	r24
		}
		if(temp < cpu_min)
    1eca:	90 91 3e 04 	lds	r25, 0x043E	; 0x80043e <cpu_min>
    1ece:	89 17       	cp	r24, r25
    1ed0:	10 f4       	brcc	.+4      	; 0x1ed6 <Cpu_Measurement+0x32>
		{
			cpu_min=temp;
    1ed2:	80 93 3e 04 	sts	0x043E, r24	; 0x80043e <cpu_min>
		}
		if(temp > cpu_max)
    1ed6:	90 91 34 04 	lds	r25, 0x0434	; 0x800434 <cpu_max>
    1eda:	98 17       	cp	r25, r24
    1edc:	10 f4       	brcc	.+4      	; 0x1ee2 <Cpu_Measurement+0x3e>
		{
			cpu_max=temp;
    1ede:	80 93 34 04 	sts	0x0434, r24	; 0x800434 <cpu_max>
		}

		cpu_avg_t += temp;
    1ee2:	40 91 96 03 	lds	r20, 0x0396	; 0x800396 <cpu_avg_t.3605>
    1ee6:	50 91 97 03 	lds	r21, 0x0397	; 0x800397 <cpu_avg_t.3605+0x1>
    1eea:	60 91 98 03 	lds	r22, 0x0398	; 0x800398 <cpu_avg_t.3605+0x2>
    1eee:	70 91 99 03 	lds	r23, 0x0399	; 0x800399 <cpu_avg_t.3605+0x3>
    1ef2:	8a 01       	movw	r16, r20
    1ef4:	9b 01       	movw	r18, r22
    1ef6:	08 0f       	add	r16, r24
    1ef8:	11 1d       	adc	r17, r1
    1efa:	21 1d       	adc	r18, r1
    1efc:	31 1d       	adc	r19, r1
    1efe:	c9 01       	movw	r24, r18
    1f00:	b8 01       	movw	r22, r16
    1f02:	00 93 96 03 	sts	0x0396, r16	; 0x800396 <cpu_avg_t.3605>
    1f06:	10 93 97 03 	sts	0x0397, r17	; 0x800397 <cpu_avg_t.3605+0x1>
    1f0a:	20 93 98 03 	sts	0x0398, r18	; 0x800398 <cpu_avg_t.3605+0x2>
    1f0e:	30 93 99 03 	sts	0x0399, r19	; 0x800399 <cpu_avg_t.3605+0x3>

		if(++cpu_cycle > CPU_AVG_CYCLE)
    1f12:	00 91 92 03 	lds	r16, 0x0392	; 0x800392 <cpu_cycle.3606>
    1f16:	10 91 93 03 	lds	r17, 0x0393	; 0x800393 <cpu_cycle.3606+0x1>
    1f1a:	20 91 94 03 	lds	r18, 0x0394	; 0x800394 <cpu_cycle.3606+0x2>
    1f1e:	30 91 95 03 	lds	r19, 0x0395	; 0x800395 <cpu_cycle.3606+0x3>
    1f22:	a9 01       	movw	r20, r18
    1f24:	98 01       	movw	r18, r16
    1f26:	2f 5f       	subi	r18, 0xFF	; 255
    1f28:	3f 4f       	sbci	r19, 0xFF	; 255
    1f2a:	4f 4f       	sbci	r20, 0xFF	; 255
    1f2c:	5f 4f       	sbci	r21, 0xFF	; 255
    1f2e:	20 93 92 03 	sts	0x0392, r18	; 0x800392 <cpu_cycle.3606>
    1f32:	30 93 93 03 	sts	0x0393, r19	; 0x800393 <cpu_cycle.3606+0x1>
    1f36:	40 93 94 03 	sts	0x0394, r20	; 0x800394 <cpu_cycle.3606+0x2>
    1f3a:	50 93 95 03 	sts	0x0395, r21	; 0x800395 <cpu_cycle.3606+0x3>
    1f3e:	25 36       	cpi	r18, 0x65	; 101
    1f40:	31 05       	cpc	r19, r1
    1f42:	41 05       	cpc	r20, r1
    1f44:	51 05       	cpc	r21, r1
		{
			cpu_avg = cpu_avg_t/cpu_cycle;
    1f46:	c8 f1       	brcs	.+114    	; 0x1fba <Cpu_Measurement+0x116>
    1f48:	6c d3       	rcall	.+1752   	; 0x2622 <__udivmodsi4>
    1f4a:	20 93 3a 04 	sts	0x043A, r18	; 0x80043a <cpu_avg>
    1f4e:	30 93 3b 04 	sts	0x043B, r19	; 0x80043b <cpu_avg+0x1>
    1f52:	40 93 3c 04 	sts	0x043C, r20	; 0x80043c <cpu_avg+0x2>
    1f56:	50 93 3d 04 	sts	0x043D, r21	; 0x80043d <cpu_avg+0x3>
			cpu_avg_t=0;
    1f5a:	10 92 96 03 	sts	0x0396, r1	; 0x800396 <cpu_avg_t.3605>
    1f5e:	10 92 97 03 	sts	0x0397, r1	; 0x800397 <cpu_avg_t.3605+0x1>
    1f62:	10 92 98 03 	sts	0x0398, r1	; 0x800398 <cpu_avg_t.3605+0x2>
    1f66:	10 92 99 03 	sts	0x0399, r1	; 0x800399 <cpu_avg_t.3605+0x3>
			cpu_cycle=0;
    1f6a:	10 92 92 03 	sts	0x0392, r1	; 0x800392 <cpu_cycle.3606>
    1f6e:	10 92 93 03 	sts	0x0393, r1	; 0x800393 <cpu_cycle.3606+0x1>
    1f72:	10 92 94 03 	sts	0x0394, r1	; 0x800394 <cpu_cycle.3606+0x2>
    1f76:	10 92 95 03 	sts	0x0395, r1	; 0x800395 <cpu_cycle.3606+0x3>
		}
	}
	else// registerlarýn reset durumlarý
	{
		cpu_min=CPU_TIMER_PERIOD;
    1f7a:	1f c0       	rjmp	.+62     	; 0x1fba <Cpu_Measurement+0x116>
    1f7c:	8f ef       	ldi	r24, 0xFF	; 255
    1f7e:	80 93 3e 04 	sts	0x043E, r24	; 0x80043e <cpu_min>
		cpu_max=0;
    1f82:	10 92 34 04 	sts	0x0434, r1	; 0x800434 <cpu_max>
		cpu_avg=0;
    1f86:	10 92 3a 04 	sts	0x043A, r1	; 0x80043a <cpu_avg>
    1f8a:	10 92 3b 04 	sts	0x043B, r1	; 0x80043b <cpu_avg+0x1>
    1f8e:	10 92 3c 04 	sts	0x043C, r1	; 0x80043c <cpu_avg+0x2>
    1f92:	10 92 3d 04 	sts	0x043D, r1	; 0x80043d <cpu_avg+0x3>
		cpu_avg_t=0;
    1f96:	10 92 96 03 	sts	0x0396, r1	; 0x800396 <cpu_avg_t.3605>
    1f9a:	10 92 97 03 	sts	0x0397, r1	; 0x800397 <cpu_avg_t.3605+0x1>
    1f9e:	10 92 98 03 	sts	0x0398, r1	; 0x800398 <cpu_avg_t.3605+0x2>
    1fa2:	10 92 99 03 	sts	0x0399, r1	; 0x800399 <cpu_avg_t.3605+0x3>
		cpu_cycle=0;
    1fa6:	10 92 92 03 	sts	0x0392, r1	; 0x800392 <cpu_cycle.3606>
    1faa:	10 92 93 03 	sts	0x0393, r1	; 0x800393 <cpu_cycle.3606+0x1>
    1fae:	10 92 94 03 	sts	0x0394, r1	; 0x800394 <cpu_cycle.3606+0x2>
    1fb2:	10 92 95 03 	sts	0x0395, r1	; 0x800395 <cpu_cycle.3606+0x3>
		cpu_measurement_restart=false;
    1fb6:	10 92 50 01 	sts	0x0150, r1	; 0x800150 <cpu_measurement_restart>
	}
	cpu_timer_t=cpu_timer;
    1fba:	c0 93 9a 03 	sts	0x039A, r28	; 0x80039a <cpu_timer_t.3604>
}
    1fbe:	cf 91       	pop	r28
    1fc0:	1f 91       	pop	r17
    1fc2:	0f 91       	pop	r16
    1fc4:	08 95       	ret

00001fc6 <Cpu_Hardware_Init>:
/****************************************************************************/
/****************************************************************************/
/****************************************************************************/
void Cpu_Hardware_Init(void)
{
    1fc6:	cf 93       	push	r28
    1fc8:	df 93       	push	r29
    1fca:	cd b7       	in	r28, 0x3d	; 61
    1fcc:	de b7       	in	r29, 0x3e	; 62
    1fce:	69 97       	sbiw	r28, 0x19	; 25
    1fd0:	0f b6       	in	r0, 0x3f	; 63
    1fd2:	f8 94       	cli
    1fd4:	de bf       	out	0x3e, r29	; 62
    1fd6:	0f be       	out	0x3f, r0	; 63
	// iþlemci 16 Mhz ile koþmaktadýr
	// usart 115200 e ayarlanmýþtýr.
	sysclk_init();
    1fd8:	cd bf       	out	0x3d, r28	; 61
		sysclk_enable_module(POWER_RED_REG0, PRPGA_bm);
#endif
	}
#if !MEGA_UNCATEGORIZED
	else if (module == &UCSR0A) {
		sysclk_enable_module(POWER_RED_REG0, PRUSART0_bm);
    1fda:	e5 dc       	rcall	.-1590   	; 0x19a6 <sysclk_init>
    1fdc:	62 e0       	ldi	r22, 0x02	; 2

#if !MEGA_XX_UN2 && !MEGA_UNCATEGORIZED
	else if (module == &TCCR0A) {
		sysclk_enable_module(POWER_RED_REG0, PRTIM0_bm);
	} else if (module == &TCCR2A) {
		sysclk_enable_module(POWER_RED_REG0, PRTIM2_bm);
    1fde:	80 e0       	ldi	r24, 0x00	; 0
    1fe0:	fb dc       	rcall	.-1546   	; 0x19d8 <sysclk_enable_module>
		sysclk_enable_module(POWER_RED_REG0, PRSPI_bm);
	}
#endif

	else if (module == &TCCR1A) {
		sysclk_enable_module(POWER_RED_REG0, PRTIM1_bm);
    1fe2:	60 e4       	ldi	r22, 0x40	; 64
    1fe4:	80 e0       	ldi	r24, 0x00	; 0
    1fe6:	f8 dc       	rcall	.-1552   	; 0x19d8 <sysclk_enable_module>
	}
#endif

#if !MEGA_XX_UN2 && !MEGA_UNCATEGORIZED
	else if (module == &TCCR0A) {
		sysclk_enable_module(POWER_RED_REG0, PRTIM0_bm);
    1fe8:	68 e0       	ldi	r22, 0x08	; 8
    1fea:	80 e0       	ldi	r24, 0x00	; 0
    1fec:	f5 dc       	rcall	.-1558   	; 0x19d8 <sysclk_enable_module>
    1fee:	60 e2       	ldi	r22, 0x20	; 32
	sysclk_enable_peripheral_clock(&UCSR0A);// usart peripheral clock enable
	sysclk_enable_peripheral_clock(&TCCR2A);// timer2 peripheral clock enable
	sysclk_enable_peripheral_clock(&TCCR1A);// timer1 peripheral clock enable
	sysclk_enable_peripheral_clock(&TCCR0A);// timer0 peripheral clock enable
	
	board_init();
    1ff0:	80 e0       	ldi	r24, 0x00	; 0
    1ff2:	f2 dc       	rcall	.-1564   	; 0x19d8 <sysclk_enable_module>
	
	cli();
    1ff4:	0e 94 b7 04 	call	0x96e	; 0x96e <board_init>
/****************************************************************************/
static void uart_init(void)
{
	#if defined UBRR0H
	// get the values from the setbaud tool
	UBRR0H = UBRRH_VALUE;
    1ff8:	f8 94       	cli
	UBRR0L = UBRRL_VALUE;
    1ffa:	10 92 c5 00 	sts	0x00C5, r1	; 0x8000c5 <__TEXT_REGION_LENGTH__+0x7e00c5>
    1ffe:	80 e1       	ldi	r24, 0x10	; 16
	#else
	#error "Device is not supported by the driver"
	#endif

	#if USE_2X
	UCSR0A |= (1 << U2X0);
    2000:	80 93 c4 00 	sts	0x00C4, r24	; 0x8000c4 <__TEXT_REGION_LENGTH__+0x7e00c4>
    2004:	e0 ec       	ldi	r30, 0xC0	; 192
    2006:	f0 e0       	ldi	r31, 0x00	; 0
    2008:	80 81       	ld	r24, Z
	#endif

	// enable RX and TX and set interrupts on rx complete
	UCSR0B = (1 << RXEN0) | (1 << TXEN0) | (1 << RXCIE0);
    200a:	82 60       	ori	r24, 0x02	; 2
    200c:	80 83       	st	Z, r24
    200e:	88 e9       	ldi	r24, 0x98	; 152

	// 8-bit, 1 stop bit, no parity, asynchronous UART
	UCSR0C = (1 << UCSZ01) | (1 << UCSZ00) | (0 << USBS0) |
    2010:	80 93 c1 00 	sts	0x00C1, r24	; 0x8000c1 <__TEXT_REGION_LENGTH__+0x7e00c1>
    2014:	86 e0       	ldi	r24, 0x06	; 6
 * \retval struct ring_buffer a struct containing the ring buffer
 */
static inline struct ring_buffer ring_buffer_init(uint8_t *buffer, uint8_t size)
{
	struct ring_buffer ring;
	ring.write_offset = 0;
    2016:	80 93 c2 00 	sts	0x00C2, r24	; 0x8000c2 <__TEXT_REGION_LENGTH__+0x7e00c2>
	ring.read_offset = 0;
	ring.size = size;
    201a:	1d 8a       	std	Y+21, r1	; 0x15
    201c:	1e 8a       	std	Y+22, r1	; 0x16
	ring.buffer = buffer;
    201e:	80 e4       	ldi	r24, 0x40	; 64
    2020:	8f 8b       	std	Y+23, r24	; 0x17
    2022:	24 eb       	ldi	r18, 0xB4	; 180
    2024:	33 e0       	ldi	r19, 0x03	; 3
	return ring;
    2026:	39 8f       	std	Y+25, r19	; 0x19
    2028:	28 8f       	std	Y+24, r18	; 0x18
    202a:	95 e0       	ldi	r25, 0x05	; 5
    202c:	fe 01       	movw	r30, r28
    202e:	75 96       	adiw	r30, 0x15	; 21
    2030:	de 01       	movw	r26, r28
    2032:	50 96       	adiw	r26, 0x10	; 16
    2034:	01 90       	ld	r0, Z+
    2036:	0d 92       	st	X+, r0
    2038:	9a 95       	dec	r25
    203a:	e1 f7       	brne	.-8      	; 0x2034 <Cpu_Hardware_Init+0x6e>
    203c:	95 e0       	ldi	r25, 0x05	; 5
    203e:	fe 01       	movw	r30, r28
    2040:	70 96       	adiw	r30, 0x10	; 16
    2042:	de 01       	movw	r26, r28
    2044:	1b 96       	adiw	r26, 0x0b	; 11
    2046:	01 90       	ld	r0, Z+
    2048:	0d 92       	st	X+, r0
	(0 << UPM01) | (0 << UPM00) | (0 << UMSEL01) |
	(0 << UMSEL00);

	// initialize the in and out buffer for the UART
	ring_buffer_out = ring_buffer_init(out_buffer, BUFFER_SIZE);
    204a:	9a 95       	dec	r25
    204c:	e1 f7       	brne	.-8      	; 0x2046 <Cpu_Hardware_Init+0x80>
    204e:	95 e0       	ldi	r25, 0x05	; 5
    2050:	fe 01       	movw	r30, r28
    2052:	3b 96       	adiw	r30, 0x0b	; 11
    2054:	af e3       	ldi	r26, 0x3F	; 63
    2056:	b4 e0       	ldi	r27, 0x04	; 4
    2058:	01 90       	ld	r0, Z+
    205a:	0d 92       	st	X+, r0
 * \retval struct ring_buffer a struct containing the ring buffer
 */
static inline struct ring_buffer ring_buffer_init(uint8_t *buffer, uint8_t size)
{
	struct ring_buffer ring;
	ring.write_offset = 0;
    205c:	9a 95       	dec	r25
	ring.read_offset = 0;
    205e:	e1 f7       	brne	.-8      	; 0x2058 <Cpu_Hardware_Init+0x92>
	ring.size = size;
    2060:	1d 8a       	std	Y+21, r1	; 0x15
	ring.buffer = buffer;
    2062:	1e 8a       	std	Y+22, r1	; 0x16
    2064:	8f 8b       	std	Y+23, r24	; 0x17
    2066:	84 ef       	ldi	r24, 0xF4	; 244
    2068:	93 e0       	ldi	r25, 0x03	; 3
	return ring;
    206a:	99 8f       	std	Y+25, r25	; 0x19
    206c:	88 8f       	std	Y+24, r24	; 0x18
    206e:	85 e0       	ldi	r24, 0x05	; 5
    2070:	fe 01       	movw	r30, r28
    2072:	75 96       	adiw	r30, 0x15	; 21
    2074:	de 01       	movw	r26, r28
    2076:	16 96       	adiw	r26, 0x06	; 6
    2078:	01 90       	ld	r0, Z+
    207a:	0d 92       	st	X+, r0
    207c:	8a 95       	dec	r24
    207e:	e1 f7       	brne	.-8      	; 0x2078 <Cpu_Hardware_Init+0xb2>
    2080:	85 e0       	ldi	r24, 0x05	; 5
    2082:	fe 01       	movw	r30, r28
    2084:	36 96       	adiw	r30, 0x06	; 6
    2086:	de 01       	movw	r26, r28
    2088:	11 96       	adiw	r26, 0x01	; 1
    208a:	01 90       	ld	r0, Z+
    208c:	0d 92       	st	X+, r0
	ring_buffer_in = ring_buffer_init(in_buffer, BUFFER_SIZE);
    208e:	8a 95       	dec	r24
    2090:	e1 f7       	brne	.-8      	; 0x208a <Cpu_Hardware_Init+0xc4>
    2092:	85 e0       	ldi	r24, 0x05	; 5
    2094:	fe 01       	movw	r30, r28
    2096:	31 96       	adiw	r30, 0x01	; 1
    2098:	a5 e3       	ldi	r26, 0x35	; 53
    209a:	b4 e0       	ldi	r27, 0x04	; 4
    209c:	01 90       	ld	r0, Z+
    209e:	0d 92       	st	X+, r0
	return ring_buffer_get(&ring_buffer_in);
}
/****************************************************************************/
static inline void timers_init(void)
{
	TCNT0=TICK_TIMER_RELOAD;//for 10mS  at 16 MHz Tick Timer
    20a0:	8a 95       	dec	r24
    20a2:	e1 f7       	brne	.-8      	; 0x209c <Cpu_Hardware_Init+0xd6>
	TCCR0A=0x00;
    20a4:	83 e6       	ldi	r24, 0x63	; 99
	TCCR0B=0x05;  // Timer mode with 1024 prescler (clock böleni en yavas haline ayarlý daha fazla yavaslatilamaz)
    20a6:	86 bd       	out	0x26, r24	; 38
    20a8:	14 bc       	out	0x24, r1	; 36
	TIMSK0=1;// int enable
    20aa:	85 e0       	ldi	r24, 0x05	; 5
    20ac:	85 bd       	out	0x25, r24	; 37
    20ae:	81 e0       	ldi	r24, 0x01	; 1

	TCNT1 = SEC_TIMER_RELOAD;  //for 1 sec at 16 MHz
    20b0:	80 93 6e 00 	sts	0x006E, r24	; 0x80006e <__TEXT_REGION_LENGTH__+0x7e006e>
    20b4:	2b ef       	ldi	r18, 0xFB	; 251
    20b6:	3b e0       	ldi	r19, 0x0B	; 11
    20b8:	30 93 85 00 	sts	0x0085, r19	; 0x800085 <__TEXT_REGION_LENGTH__+0x7e0085>
	TCCR1A=0x00;
    20bc:	20 93 84 00 	sts	0x0084, r18	; 0x800084 <__TEXT_REGION_LENGTH__+0x7e0084>
	TCCR1B=0x04;  // Timer mode with 512 prescler (clock böleni 16 bit de 1 sn yi hesaplayan en iyi degerde )
    20c0:	10 92 80 00 	sts	0x0080, r1	; 0x800080 <__TEXT_REGION_LENGTH__+0x7e0080>
    20c4:	94 e0       	ldi	r25, 0x04	; 4
	TIMSK1=0x01;  // int enable
    20c6:	90 93 81 00 	sts	0x0081, r25	; 0x800081 <__TEXT_REGION_LENGTH__+0x7e0081>
	
	TCNT2=0; //for 10mS  at 16 MHz CPU timer
    20ca:	80 93 6f 00 	sts	0x006F, r24	; 0x80006f <__TEXT_REGION_LENGTH__+0x7e006f>
	TCCR2A=0x00;
    20ce:	10 92 b2 00 	sts	0x00B2, r1	; 0x8000b2 <__TEXT_REGION_LENGTH__+0x7e00b2>
	TCCR2B=0x07;  // Timer mode with 1024 prescler (clock böleni en tick timer böleni ile ayný olmalýdýr.)
    20d2:	10 92 b0 00 	sts	0x00B0, r1	; 0x8000b0 <__TEXT_REGION_LENGTH__+0x7e00b0>
	board_init();
	
	cli();
	uart_init();
	timers_init();
	sei();
    20d6:	87 e0       	ldi	r24, 0x07	; 7
	
	Calc_WeekDay(&real_date);
    20d8:	80 93 b1 00 	sts	0x00B1, r24	; 0x8000b1 <__TEXT_REGION_LENGTH__+0x7e00b1>
    20dc:	78 94       	sei
    20de:	8e e3       	ldi	r24, 0x3E	; 62
	
	xdev_out(uart_putchar);
    20e0:	91 e0       	ldi	r25, 0x01	; 1
    20e2:	04 dc       	rcall	.-2040   	; 0x18ec <Calc_WeekDay>
    20e4:	8d e0       	ldi	r24, 0x0D	; 13
    20e6:	9d e0       	ldi	r25, 0x0D	; 13
    20e8:	90 93 47 04 	sts	0x0447, r25	; 0x800447 <xfunc_out+0x1>

	gpio_set_pin_high(BUZZER_PIN);
	delay_ms(5);
    20ec:	80 93 46 04 	sts	0x0446, r24	; 0x800446 <xfunc_out>
    20f0:	42 9a       	sbi	0x08, 2	; 8
    20f2:	66 e1       	ldi	r22, 0x16	; 22
    20f4:	74 e3       	ldi	r23, 0x34	; 52
		base_add->PORTDATA
			= (base_add->PORTDATA  | arch_ioport_pin_to_mask
					(pin));
	} else {
		base_add->PORTDATA
			= (base_add->PORTDATA  & (~arch_ioport_pin_to_mask
    20f6:	80 e0       	ldi	r24, 0x00	; 0
	gpio_set_pin_low(BUZZER_PIN);
	delay_ms(100);
    20f8:	90 e0       	ldi	r25, 0x00	; 0
    20fa:	84 dc       	rcall	.-1784   	; 0x1a04 <__portable_avr_delay_cycles>
    20fc:	42 98       	cbi	0x08, 2	; 8
    20fe:	6b ea       	ldi	r22, 0xAB	; 171
    2100:	71 e1       	ldi	r23, 0x11	; 17
{
	PORT_t *base_add = arch_ioport_port_to_base(pin >> 3);

	if (level) {
		base_add->PORTDATA
			= (base_add->PORTDATA  | arch_ioport_pin_to_mask
    2102:	84 e0       	ldi	r24, 0x04	; 4
	gpio_set_pin_high(BUZZER_PIN);
	delay_ms(5);
    2104:	90 e0       	ldi	r25, 0x00	; 0
    2106:	7e dc       	rcall	.-1796   	; 0x1a04 <__portable_avr_delay_cycles>
    2108:	42 9a       	sbi	0x08, 2	; 8
    210a:	66 e1       	ldi	r22, 0x16	; 22
    210c:	74 e3       	ldi	r23, 0x34	; 52
					(pin));
	} else {
		base_add->PORTDATA
			= (base_add->PORTDATA  & (~arch_ioport_pin_to_mask
    210e:	80 e0       	ldi	r24, 0x00	; 0
	gpio_set_pin_low(BUZZER_PIN);
	delay_ms(100);
    2110:	90 e0       	ldi	r25, 0x00	; 0
    2112:	78 dc       	rcall	.-1808   	; 0x1a04 <__portable_avr_delay_cycles>
    2114:	42 98       	cbi	0x08, 2	; 8
    2116:	6b ea       	ldi	r22, 0xAB	; 171
    2118:	71 e1       	ldi	r23, 0x11	; 17
{
	PORT_t *base_add = arch_ioport_port_to_base(pin >> 3);

	if (level) {
		base_add->PORTDATA
			= (base_add->PORTDATA  | arch_ioport_pin_to_mask
    211a:	84 e0       	ldi	r24, 0x04	; 4
	gpio_set_pin_high(BUZZER_PIN);
	delay_ms(5);
    211c:	90 e0       	ldi	r25, 0x00	; 0
    211e:	72 dc       	rcall	.-1820   	; 0x1a04 <__portable_avr_delay_cycles>
    2120:	42 9a       	sbi	0x08, 2	; 8
    2122:	66 e1       	ldi	r22, 0x16	; 22
    2124:	74 e3       	ldi	r23, 0x34	; 52
    2126:	80 e0       	ldi	r24, 0x00	; 0
					(pin));
	} else {
		base_add->PORTDATA
			= (base_add->PORTDATA  & (~arch_ioport_pin_to_mask
    2128:	90 e0       	ldi	r25, 0x00	; 0
	gpio_set_pin_low(BUZZER_PIN);
	
	//button_2=ioport_get_pin_level(BUTTON_2);
	//uart_putstr(test_string,strlen(test_string));
}
    212a:	6c dc       	rcall	.-1832   	; 0x1a04 <__portable_avr_delay_cycles>
    212c:	42 98       	cbi	0x08, 2	; 8
    212e:	69 96       	adiw	r28, 0x19	; 25
    2130:	0f b6       	in	r0, 0x3f	; 63
    2132:	f8 94       	cli
    2134:	de bf       	out	0x3e, r29	; 62
    2136:	0f be       	out	0x3f, r0	; 63
    2138:	cd bf       	out	0x3d, r28	; 61
    213a:	df 91       	pop	r29
    213c:	cf 91       	pop	r28
    213e:	08 95       	ret

00002140 <xputc>:
	xfunc_out = func;	/* Switch output to specified device */
	while (*str) {		/* Put the string */
		xputc(*str++);
	}
	xfunc_out = pf;		/* Restore output device */
}
    2140:	cf 93       	push	r28
    2142:	c8 2f       	mov	r28, r24
    2144:	8a 30       	cpi	r24, 0x0A	; 10
    2146:	11 f4       	brne	.+4      	; 0x214c <xputc+0xc>
    2148:	8d e0       	ldi	r24, 0x0D	; 13
    214a:	fa df       	rcall	.-12     	; 0x2140 <xputc>
    214c:	e0 91 b2 03 	lds	r30, 0x03B2	; 0x8003b2 <outptr>
    2150:	f0 91 b3 03 	lds	r31, 0x03B3	; 0x8003b3 <outptr+0x1>
    2154:	30 97       	sbiw	r30, 0x00	; 0
    2156:	41 f0       	breq	.+16     	; 0x2168 <xputc+0x28>
    2158:	cf 01       	movw	r24, r30
    215a:	01 96       	adiw	r24, 0x01	; 1
    215c:	90 93 b3 03 	sts	0x03B3, r25	; 0x8003b3 <outptr+0x1>
    2160:	80 93 b2 03 	sts	0x03B2, r24	; 0x8003b2 <outptr>
    2164:	c0 83       	st	Z, r28
    2166:	08 c0       	rjmp	.+16     	; 0x2178 <xputc+0x38>
    2168:	e0 91 46 04 	lds	r30, 0x0446	; 0x800446 <xfunc_out>
    216c:	f0 91 47 04 	lds	r31, 0x0447	; 0x800447 <xfunc_out+0x1>
    2170:	30 97       	sbiw	r30, 0x00	; 0
    2172:	11 f0       	breq	.+4      	; 0x2178 <xputc+0x38>
    2174:	8c 2f       	mov	r24, r28
    2176:	09 95       	icall
    2178:	cf 91       	pop	r28
    217a:	08 95       	ret

0000217c <xputs>:
    217c:	cf 93       	push	r28
    217e:	df 93       	push	r29
    2180:	ec 01       	movw	r28, r24
    2182:	88 81       	ld	r24, Y
    2184:	88 23       	and	r24, r24
    2186:	29 f0       	breq	.+10     	; 0x2192 <xputs+0x16>
    2188:	21 96       	adiw	r28, 0x01	; 1
    218a:	da df       	rcall	.-76     	; 0x2140 <xputc>
    218c:	89 91       	ld	r24, Y+
    218e:	81 11       	cpse	r24, r1
    2190:	fc cf       	rjmp	.-8      	; 0x218a <xputs+0xe>
    2192:	df 91       	pop	r29
    2194:	cf 91       	pop	r28
    2196:	08 95       	ret

00002198 <xvprintf>:
    2198:	2f 92       	push	r2
    219a:	3f 92       	push	r3
    219c:	4f 92       	push	r4
    219e:	5f 92       	push	r5
    21a0:	6f 92       	push	r6
    21a2:	7f 92       	push	r7
    21a4:	8f 92       	push	r8
    21a6:	9f 92       	push	r9
    21a8:	af 92       	push	r10
    21aa:	bf 92       	push	r11
    21ac:	cf 92       	push	r12
    21ae:	df 92       	push	r13
    21b0:	ef 92       	push	r14
    21b2:	ff 92       	push	r15
    21b4:	0f 93       	push	r16
    21b6:	1f 93       	push	r17
    21b8:	cf 93       	push	r28
    21ba:	df 93       	push	r29
    21bc:	cd b7       	in	r28, 0x3d	; 61
    21be:	de b7       	in	r29, 0x3e	; 62
    21c0:	6c 97       	sbiw	r28, 0x1c	; 28
    21c2:	0f b6       	in	r0, 0x3f	; 63
    21c4:	f8 94       	cli
    21c6:	de bf       	out	0x3e, r29	; 62
    21c8:	0f be       	out	0x3f, r0	; 63
    21ca:	cd bf       	out	0x3d, r28	; 61
    21cc:	1c 01       	movw	r2, r24
    21ce:	7a 8f       	std	Y+26, r23	; 0x1a
    21d0:	69 8f       	std	Y+25, r22	; 0x19
    21d2:	02 c0       	rjmp	.+4      	; 0x21d8 <xvprintf+0x40>
    21d4:	ba 8e       	std	Y+26, r11	; 0x1a
    21d6:	a9 8e       	std	Y+25, r10	; 0x19
    21d8:	d1 01       	movw	r26, r2
    21da:	8c 91       	ld	r24, X
    21dc:	88 23       	and	r24, r24
    21de:	09 f4       	brne	.+2      	; 0x21e2 <xvprintf+0x4a>
    21e0:	c4 c1       	rjmp	.+904    	; 0x256a <xvprintf+0x3d2>
    21e2:	85 32       	cpi	r24, 0x25	; 37
    21e4:	29 f0       	breq	.+10     	; 0x21f0 <xvprintf+0x58>
    21e6:	bf ef       	ldi	r27, 0xFF	; 255
    21e8:	2b 1a       	sub	r2, r27
    21ea:	3b 0a       	sbc	r3, r27
    21ec:	a9 df       	rcall	.-174    	; 0x2140 <xputc>
    21ee:	f4 cf       	rjmp	.-24     	; 0x21d8 <xvprintf+0x40>
    21f0:	f1 01       	movw	r30, r2
    21f2:	41 81       	ldd	r20, Z+1	; 0x01
    21f4:	40 33       	cpi	r20, 0x30	; 48
    21f6:	49 f4       	brne	.+18     	; 0x220a <xvprintf+0x72>
    21f8:	42 81       	ldd	r20, Z+2	; 0x02
    21fa:	91 01       	movw	r18, r2
    21fc:	2d 5f       	subi	r18, 0xFD	; 253
    21fe:	3f 4f       	sbci	r19, 0xFF	; 255
    2200:	19 01       	movw	r2, r18
    2202:	ee 24       	eor	r14, r14
    2204:	e3 94       	inc	r14
    2206:	f1 2c       	mov	r15, r1
    2208:	10 c0       	rjmp	.+32     	; 0x222a <xvprintf+0x92>
    220a:	4d 32       	cpi	r20, 0x2D	; 45
    220c:	31 f0       	breq	.+12     	; 0x221a <xvprintf+0x82>
    220e:	32 e0       	ldi	r19, 0x02	; 2
    2210:	23 0e       	add	r2, r19
    2212:	31 1c       	adc	r3, r1
    2214:	e1 2c       	mov	r14, r1
    2216:	f1 2c       	mov	r15, r1
    2218:	08 c0       	rjmp	.+16     	; 0x222a <xvprintf+0x92>
    221a:	42 81       	ldd	r20, Z+2	; 0x02
    221c:	f1 01       	movw	r30, r2
    221e:	33 96       	adiw	r30, 0x03	; 3
    2220:	1f 01       	movw	r2, r30
    2222:	68 94       	set
    2224:	ee 24       	eor	r14, r14
    2226:	e1 f8       	bld	r14, 1
    2228:	f1 2c       	mov	r15, r1
    222a:	80 ed       	ldi	r24, 0xD0	; 208
    222c:	84 0f       	add	r24, r20
    222e:	8a 30       	cpi	r24, 0x0A	; 10
    2230:	f0 f4       	brcc	.+60     	; 0x226e <xvprintf+0xd6>
    2232:	00 e0       	ldi	r16, 0x00	; 0
    2234:	10 e0       	ldi	r17, 0x00	; 0
    2236:	c8 01       	movw	r24, r16
    2238:	88 0f       	add	r24, r24
    223a:	99 1f       	adc	r25, r25
    223c:	00 0f       	add	r16, r16
    223e:	11 1f       	adc	r17, r17
    2240:	00 0f       	add	r16, r16
    2242:	11 1f       	adc	r17, r17
    2244:	00 0f       	add	r16, r16
    2246:	11 1f       	adc	r17, r17
    2248:	08 0f       	add	r16, r24
    224a:	19 1f       	adc	r17, r25
    224c:	04 0f       	add	r16, r20
    224e:	11 1d       	adc	r17, r1
    2250:	47 fd       	sbrc	r20, 7
    2252:	1a 95       	dec	r17
    2254:	00 53       	subi	r16, 0x30	; 48
    2256:	11 09       	sbc	r17, r1
    2258:	ff ef       	ldi	r31, 0xFF	; 255
    225a:	2f 1a       	sub	r2, r31
    225c:	3f 0a       	sbc	r3, r31
    225e:	f1 01       	movw	r30, r2
    2260:	31 97       	sbiw	r30, 0x01	; 1
    2262:	40 81       	ld	r20, Z
    2264:	80 ed       	ldi	r24, 0xD0	; 208
    2266:	84 0f       	add	r24, r20
    2268:	8a 30       	cpi	r24, 0x0A	; 10
    226a:	28 f3       	brcs	.-54     	; 0x2236 <xvprintf+0x9e>
    226c:	02 c0       	rjmp	.+4      	; 0x2272 <xvprintf+0xda>
    226e:	00 e0       	ldi	r16, 0x00	; 0
    2270:	10 e0       	ldi	r17, 0x00	; 0
    2272:	84 2f       	mov	r24, r20
    2274:	8f 7d       	andi	r24, 0xDF	; 223
    2276:	8c 34       	cpi	r24, 0x4C	; 76
    2278:	39 f4       	brne	.+14     	; 0x2288 <xvprintf+0xf0>
    227a:	68 94       	set
    227c:	e2 f8       	bld	r14, 2
    227e:	d1 01       	movw	r26, r2
    2280:	4c 91       	ld	r20, X
    2282:	f1 01       	movw	r30, r2
    2284:	31 96       	adiw	r30, 0x01	; 1
    2286:	1f 01       	movw	r2, r30
    2288:	44 23       	and	r20, r20
    228a:	09 f4       	brne	.+2      	; 0x228e <xvprintf+0xf6>
    228c:	6e c1       	rjmp	.+732    	; 0x256a <xvprintf+0x3d2>
    228e:	41 36       	cpi	r20, 0x61	; 97
    2290:	1c f0       	brlt	.+6      	; 0x2298 <xvprintf+0x100>
    2292:	20 ee       	ldi	r18, 0xE0	; 224
    2294:	24 0f       	add	r18, r20
    2296:	01 c0       	rjmp	.+2      	; 0x229a <xvprintf+0x102>
    2298:	24 2f       	mov	r18, r20
    229a:	82 2f       	mov	r24, r18
    229c:	02 2e       	mov	r0, r18
    229e:	00 0c       	add	r0, r0
    22a0:	99 0b       	sbc	r25, r25
    22a2:	aa 0b       	sbc	r26, r26
    22a4:	bb 0b       	sbc	r27, r27
    22a6:	fc 01       	movw	r30, r24
    22a8:	e2 54       	subi	r30, 0x42	; 66
    22aa:	f1 09       	sbc	r31, r1
    22ac:	e7 31       	cpi	r30, 0x17	; 23
    22ae:	f1 05       	cpc	r31, r1
    22b0:	08 f0       	brcs	.+2      	; 0x22b4 <xvprintf+0x11c>
    22b2:	4e c0       	rjmp	.+156    	; 0x2350 <xvprintf+0x1b8>
    22b4:	ec 5c       	subi	r30, 0xCC	; 204
    22b6:	ff 4f       	sbci	r31, 0xFF	; 255
    22b8:	d6 c1       	rjmp	.+940    	; 0x2666 <__tablejump2__>
    22ba:	a9 8c       	ldd	r10, Y+25	; 0x19
    22bc:	ba 8c       	ldd	r11, Y+26	; 0x1a
    22be:	f2 e0       	ldi	r31, 0x02	; 2
    22c0:	af 0e       	add	r10, r31
    22c2:	b1 1c       	adc	r11, r1
    22c4:	a9 8d       	ldd	r26, Y+25	; 0x19
    22c6:	ba 8d       	ldd	r27, Y+26	; 0x1a
    22c8:	cd 90       	ld	r12, X+
    22ca:	dc 90       	ld	r13, X
    22cc:	f6 01       	movw	r30, r12
    22ce:	80 81       	ld	r24, Z
    22d0:	88 23       	and	r24, r24
    22d2:	51 f0       	breq	.+20     	; 0x22e8 <xvprintf+0x150>
    22d4:	31 96       	adiw	r30, 0x01	; 1
    22d6:	81 2c       	mov	r8, r1
    22d8:	91 2c       	mov	r9, r1
    22da:	2f ef       	ldi	r18, 0xFF	; 255
    22dc:	82 1a       	sub	r8, r18
    22de:	92 0a       	sbc	r9, r18
    22e0:	81 91       	ld	r24, Z+
    22e2:	81 11       	cpse	r24, r1
    22e4:	fa cf       	rjmp	.-12     	; 0x22da <xvprintf+0x142>
    22e6:	02 c0       	rjmp	.+4      	; 0x22ec <xvprintf+0x154>
    22e8:	81 2c       	mov	r8, r1
    22ea:	91 2c       	mov	r9, r1
    22ec:	e1 fc       	sbrc	r14, 1
    22ee:	13 c0       	rjmp	.+38     	; 0x2316 <xvprintf+0x17e>
    22f0:	c4 01       	movw	r24, r8
    22f2:	01 96       	adiw	r24, 0x01	; 1
    22f4:	80 16       	cp	r8, r16
    22f6:	91 06       	cpc	r9, r17
    22f8:	08 f4       	brcc	.+2      	; 0x22fc <xvprintf+0x164>
    22fa:	09 c1       	rjmp	.+530    	; 0x250e <xvprintf+0x376>
    22fc:	4c 01       	movw	r8, r24
    22fe:	0b c0       	rjmp	.+22     	; 0x2316 <xvprintf+0x17e>
    2300:	3f ef       	ldi	r19, 0xFF	; 255
    2302:	e3 1a       	sub	r14, r19
    2304:	f3 0a       	sbc	r15, r19
    2306:	e0 16       	cp	r14, r16
    2308:	f1 06       	cpc	r15, r17
    230a:	08 f4       	brcc	.+2      	; 0x230e <xvprintf+0x176>
    230c:	fd c0       	rjmp	.+506    	; 0x2508 <xvprintf+0x370>
    230e:	48 01       	movw	r8, r16
    2310:	4f ef       	ldi	r20, 0xFF	; 255
    2312:	84 1a       	sub	r8, r20
    2314:	94 0a       	sbc	r9, r20
    2316:	c6 01       	movw	r24, r12
    2318:	31 df       	rcall	.-414    	; 0x217c <xputs>
    231a:	80 16       	cp	r8, r16
    231c:	91 06       	cpc	r9, r17
    231e:	08 f0       	brcs	.+2      	; 0x2322 <xvprintf+0x18a>
    2320:	59 cf       	rjmp	.-334    	; 0x21d4 <xvprintf+0x3c>
    2322:	74 01       	movw	r14, r8
    2324:	80 e2       	ldi	r24, 0x20	; 32
    2326:	0c df       	rcall	.-488    	; 0x2140 <xputc>
    2328:	5f ef       	ldi	r21, 0xFF	; 255
    232a:	e5 1a       	sub	r14, r21
    232c:	f5 0a       	sbc	r15, r21
    232e:	e0 16       	cp	r14, r16
    2330:	f1 06       	cpc	r15, r17
    2332:	c0 f3       	brcs	.-16     	; 0x2324 <xvprintf+0x18c>
    2334:	ba 8e       	std	Y+26, r11	; 0x1a
    2336:	a9 8e       	std	Y+25, r10	; 0x19
    2338:	4f cf       	rjmp	.-354    	; 0x21d8 <xvprintf+0x40>
    233a:	09 8d       	ldd	r16, Y+25	; 0x19
    233c:	1a 8d       	ldd	r17, Y+26	; 0x1a
    233e:	0e 5f       	subi	r16, 0xFE	; 254
    2340:	1f 4f       	sbci	r17, 0xFF	; 255
    2342:	a9 8d       	ldd	r26, Y+25	; 0x19
    2344:	ba 8d       	ldd	r27, Y+26	; 0x1a
    2346:	8c 91       	ld	r24, X
    2348:	fb de       	rcall	.-522    	; 0x2140 <xputc>
    234a:	1a 8f       	std	Y+26, r17	; 0x1a
    234c:	09 8f       	std	Y+25, r16	; 0x19
    234e:	44 cf       	rjmp	.-376    	; 0x21d8 <xvprintf+0x40>
    2350:	84 2f       	mov	r24, r20
    2352:	f6 de       	rcall	.-532    	; 0x2140 <xputc>
    2354:	41 cf       	rjmp	.-382    	; 0x21d8 <xvprintf+0x40>
    2356:	e2 fe       	sbrs	r14, 2
    2358:	19 c0       	rjmp	.+50     	; 0x238c <xvprintf+0x1f4>
    235a:	0f 2e       	mov	r0, r31
    235c:	fa e0       	ldi	r31, 0x0A	; 10
    235e:	4f 2e       	mov	r4, r31
    2360:	f0 2d       	mov	r31, r0
    2362:	51 2c       	mov	r5, r1
    2364:	04 c0       	rjmp	.+8      	; 0x236e <xvprintf+0x1d6>
    2366:	68 94       	set
    2368:	44 24       	eor	r4, r4
    236a:	44 f8       	bld	r4, 4
    236c:	51 2c       	mov	r5, r1
    236e:	69 8d       	ldd	r22, Y+25	; 0x19
    2370:	7a 8d       	ldd	r23, Y+26	; 0x1a
    2372:	6c 5f       	subi	r22, 0xFC	; 252
    2374:	7f 4f       	sbci	r23, 0xFF	; 255
    2376:	e9 8d       	ldd	r30, Y+25	; 0x19
    2378:	fa 8d       	ldd	r31, Y+26	; 0x1a
    237a:	80 81       	ld	r24, Z
    237c:	91 81       	ldd	r25, Z+1	; 0x01
    237e:	a2 81       	ldd	r26, Z+2	; 0x02
    2380:	b3 81       	ldd	r27, Z+3	; 0x03
    2382:	24 34       	cpi	r18, 0x44	; 68
    2384:	29 f1       	breq	.+74     	; 0x23d0 <xvprintf+0x238>
    2386:	7a 8f       	std	Y+26, r23	; 0x1a
    2388:	69 8f       	std	Y+25, r22	; 0x19
    238a:	2f c0       	rjmp	.+94     	; 0x23ea <xvprintf+0x252>
    238c:	0f 2e       	mov	r0, r31
    238e:	fa e0       	ldi	r31, 0x0A	; 10
    2390:	4f 2e       	mov	r4, r31
    2392:	f0 2d       	mov	r31, r0
    2394:	51 2c       	mov	r5, r1
    2396:	24 34       	cpi	r18, 0x44	; 68
    2398:	71 f4       	brne	.+28     	; 0x23b6 <xvprintf+0x21e>
    239a:	a9 8d       	ldd	r26, Y+25	; 0x19
    239c:	ba 8d       	ldd	r27, Y+26	; 0x1a
    239e:	6d 91       	ld	r22, X+
    23a0:	7c 91       	ld	r23, X
    23a2:	cb 01       	movw	r24, r22
    23a4:	77 0f       	add	r23, r23
    23a6:	aa 0b       	sbc	r26, r26
    23a8:	bb 0b       	sbc	r27, r27
    23aa:	e9 8d       	ldd	r30, Y+25	; 0x19
    23ac:	fa 8d       	ldd	r31, Y+26	; 0x1a
    23ae:	32 96       	adiw	r30, 0x02	; 2
    23b0:	fa 8f       	std	Y+26, r31	; 0x1a
    23b2:	e9 8f       	std	Y+25, r30	; 0x19
    23b4:	0f c0       	rjmp	.+30     	; 0x23d4 <xvprintf+0x23c>
    23b6:	a9 8d       	ldd	r26, Y+25	; 0x19
    23b8:	ba 8d       	ldd	r27, Y+26	; 0x1a
    23ba:	6d 91       	ld	r22, X+
    23bc:	7c 91       	ld	r23, X
    23be:	cb 01       	movw	r24, r22
    23c0:	a0 e0       	ldi	r26, 0x00	; 0
    23c2:	b0 e0       	ldi	r27, 0x00	; 0
    23c4:	e9 8d       	ldd	r30, Y+25	; 0x19
    23c6:	fa 8d       	ldd	r31, Y+26	; 0x1a
    23c8:	32 96       	adiw	r30, 0x02	; 2
    23ca:	fa 8f       	std	Y+26, r31	; 0x1a
    23cc:	e9 8f       	std	Y+25, r30	; 0x19
    23ce:	0d c0       	rjmp	.+26     	; 0x23ea <xvprintf+0x252>
    23d0:	7a 8f       	std	Y+26, r23	; 0x1a
    23d2:	69 8f       	std	Y+25, r22	; 0x19
    23d4:	bb 23       	and	r27, r27
    23d6:	4c f4       	brge	.+18     	; 0x23ea <xvprintf+0x252>
    23d8:	b0 95       	com	r27
    23da:	a0 95       	com	r26
    23dc:	90 95       	com	r25
    23de:	81 95       	neg	r24
    23e0:	9f 4f       	sbci	r25, 0xFF	; 255
    23e2:	af 4f       	sbci	r26, 0xFF	; 255
    23e4:	bf 4f       	sbci	r27, 0xFF	; 255
    23e6:	68 94       	set
    23e8:	e4 f8       	bld	r14, 4
    23ea:	bc 01       	movw	r22, r24
    23ec:	cd 01       	movw	r24, r26
    23ee:	48 37       	cpi	r20, 0x78	; 120
    23f0:	11 f4       	brne	.+4      	; 0x23f6 <xvprintf+0x25e>
    23f2:	27 e2       	ldi	r18, 0x27	; 39
    23f4:	01 c0       	rjmp	.+2      	; 0x23f8 <xvprintf+0x260>
    23f6:	27 e0       	ldi	r18, 0x07	; 7
    23f8:	ae 01       	movw	r20, r28
    23fa:	4f 5f       	subi	r20, 0xFF	; 255
    23fc:	5f 4f       	sbci	r21, 0xFF	; 255
    23fe:	4a 01       	movw	r8, r20
    2400:	a1 2c       	mov	r10, r1
    2402:	b1 2c       	mov	r11, r1
    2404:	61 2c       	mov	r6, r1
    2406:	71 2c       	mov	r7, r1
    2408:	1c 8f       	std	Y+28, r17	; 0x1c
    240a:	0b 8f       	std	Y+27, r16	; 0x1b
    240c:	12 2f       	mov	r17, r18
    240e:	01 c0       	rjmp	.+2      	; 0x2412 <xvprintf+0x27a>
    2410:	56 01       	movw	r10, r12
    2412:	a3 01       	movw	r20, r6
    2414:	92 01       	movw	r18, r4
    2416:	05 d1       	rcall	.+522    	; 0x2622 <__udivmodsi4>
    2418:	f6 2f       	mov	r31, r22
    241a:	e6 2f       	mov	r30, r22
    241c:	62 2f       	mov	r22, r18
    241e:	73 2f       	mov	r23, r19
    2420:	84 2f       	mov	r24, r20
    2422:	95 2f       	mov	r25, r21
    2424:	fa 30       	cpi	r31, 0x0A	; 10
    2426:	14 f0       	brlt	.+4      	; 0x242c <xvprintf+0x294>
    2428:	e1 2f       	mov	r30, r17
    242a:	ef 0f       	add	r30, r31
    242c:	65 01       	movw	r12, r10
    242e:	5f ef       	ldi	r21, 0xFF	; 255
    2430:	c5 1a       	sub	r12, r21
    2432:	d5 0a       	sbc	r13, r21
    2434:	e0 5d       	subi	r30, 0xD0	; 208
    2436:	d4 01       	movw	r26, r8
    2438:	ed 93       	st	X+, r30
    243a:	4d 01       	movw	r8, r26
    243c:	61 15       	cp	r22, r1
    243e:	71 05       	cpc	r23, r1
    2440:	81 05       	cpc	r24, r1
    2442:	91 05       	cpc	r25, r1
    2444:	21 f0       	breq	.+8      	; 0x244e <xvprintf+0x2b6>
    2446:	b8 e1       	ldi	r27, 0x18	; 24
    2448:	cb 16       	cp	r12, r27
    244a:	d1 04       	cpc	r13, r1
    244c:	09 f7       	brne	.-62     	; 0x2410 <xvprintf+0x278>
    244e:	0b 8d       	ldd	r16, Y+27	; 0x1b
    2450:	1c 8d       	ldd	r17, Y+28	; 0x1c
    2452:	e4 fe       	sbrs	r14, 4
    2454:	0c c0       	rjmp	.+24     	; 0x246e <xvprintf+0x2d6>
    2456:	e1 e0       	ldi	r30, 0x01	; 1
    2458:	f0 e0       	ldi	r31, 0x00	; 0
    245a:	ec 0f       	add	r30, r28
    245c:	fd 1f       	adc	r31, r29
    245e:	ec 0d       	add	r30, r12
    2460:	fd 1d       	adc	r31, r13
    2462:	2d e2       	ldi	r18, 0x2D	; 45
    2464:	20 83       	st	Z, r18
    2466:	a5 01       	movw	r20, r10
    2468:	4e 5f       	subi	r20, 0xFE	; 254
    246a:	5f 4f       	sbci	r21, 0xFF	; 255
    246c:	6a 01       	movw	r12, r20
    246e:	e0 fc       	sbrc	r14, 0
    2470:	04 c0       	rjmp	.+8      	; 0x247a <xvprintf+0x2e2>
    2472:	68 94       	set
    2474:	99 24       	eor	r9, r9
    2476:	95 f8       	bld	r9, 5
    2478:	04 c0       	rjmp	.+8      	; 0x2482 <xvprintf+0x2ea>
    247a:	0f 2e       	mov	r0, r31
    247c:	f0 e3       	ldi	r31, 0x30	; 48
    247e:	9f 2e       	mov	r9, r31
    2480:	f0 2d       	mov	r31, r0
    2482:	e1 fc       	sbrc	r14, 1
    2484:	13 c0       	rjmp	.+38     	; 0x24ac <xvprintf+0x314>
    2486:	56 01       	movw	r10, r12
    2488:	5f ef       	ldi	r21, 0xFF	; 255
    248a:	a5 1a       	sub	r10, r21
    248c:	b5 0a       	sbc	r11, r21
    248e:	c0 16       	cp	r12, r16
    2490:	d1 06       	cpc	r13, r17
    2492:	b0 f1       	brcs	.+108    	; 0x2500 <xvprintf+0x368>
    2494:	0c c0       	rjmp	.+24     	; 0x24ae <xvprintf+0x316>
    2496:	8f ef       	ldi	r24, 0xFF	; 255
    2498:	e8 1a       	sub	r14, r24
    249a:	f8 0a       	sbc	r15, r24
    249c:	e0 16       	cp	r14, r16
    249e:	f1 06       	cpc	r15, r17
    24a0:	60 f1       	brcs	.+88     	; 0x24fa <xvprintf+0x362>
    24a2:	58 01       	movw	r10, r16
    24a4:	9f ef       	ldi	r25, 0xFF	; 255
    24a6:	a9 1a       	sub	r10, r25
    24a8:	b9 0a       	sbc	r11, r25
    24aa:	01 c0       	rjmp	.+2      	; 0x24ae <xvprintf+0x316>
    24ac:	56 01       	movw	r10, r12
    24ae:	ee 24       	eor	r14, r14
    24b0:	e3 94       	inc	r14
    24b2:	f1 2c       	mov	r15, r1
    24b4:	ec 0e       	add	r14, r28
    24b6:	fd 1e       	adc	r15, r29
    24b8:	ec 0c       	add	r14, r12
    24ba:	fd 1c       	adc	r15, r13
    24bc:	a1 e0       	ldi	r26, 0x01	; 1
    24be:	ca 1a       	sub	r12, r26
    24c0:	d1 08       	sbc	r13, r1
    24c2:	f7 01       	movw	r30, r14
    24c4:	82 91       	ld	r24, -Z
    24c6:	7f 01       	movw	r14, r30
    24c8:	3b de       	rcall	.-906    	; 0x2140 <xputc>
    24ca:	c1 14       	cp	r12, r1
    24cc:	d1 04       	cpc	r13, r1
    24ce:	b1 f7       	brne	.-20     	; 0x24bc <xvprintf+0x324>
    24d0:	a0 16       	cp	r10, r16
    24d2:	b1 06       	cpc	r11, r17
    24d4:	08 f0       	brcs	.+2      	; 0x24d8 <xvprintf+0x340>
    24d6:	80 ce       	rjmp	.-768    	; 0x21d8 <xvprintf+0x40>
    24d8:	75 01       	movw	r14, r10
    24da:	80 e2       	ldi	r24, 0x20	; 32
    24dc:	31 de       	rcall	.-926    	; 0x2140 <xputc>
    24de:	ff ef       	ldi	r31, 0xFF	; 255
    24e0:	ef 1a       	sub	r14, r31
    24e2:	ff 0a       	sbc	r15, r31
    24e4:	e0 16       	cp	r14, r16
    24e6:	f1 06       	cpc	r15, r17
    24e8:	c0 f3       	brcs	.-16     	; 0x24da <xvprintf+0x342>
    24ea:	76 ce       	rjmp	.-788    	; 0x21d8 <xvprintf+0x40>
    24ec:	e2 fc       	sbrc	r14, 2
    24ee:	3b cf       	rjmp	.-394    	; 0x2366 <xvprintf+0x1ce>
    24f0:	68 94       	set
    24f2:	44 24       	eor	r4, r4
    24f4:	44 f8       	bld	r4, 4
    24f6:	51 2c       	mov	r5, r1
    24f8:	5e cf       	rjmp	.-324    	; 0x23b6 <xvprintf+0x21e>
    24fa:	89 2d       	mov	r24, r9
    24fc:	21 de       	rcall	.-958    	; 0x2140 <xputc>
    24fe:	cb cf       	rjmp	.-106    	; 0x2496 <xvprintf+0x2fe>
    2500:	89 2d       	mov	r24, r9
    2502:	1e de       	rcall	.-964    	; 0x2140 <xputc>
    2504:	76 01       	movw	r14, r12
    2506:	c7 cf       	rjmp	.-114    	; 0x2496 <xvprintf+0x2fe>
    2508:	80 e2       	ldi	r24, 0x20	; 32
    250a:	1a de       	rcall	.-972    	; 0x2140 <xputc>
    250c:	f9 ce       	rjmp	.-526    	; 0x2300 <xvprintf+0x168>
    250e:	80 e2       	ldi	r24, 0x20	; 32
    2510:	17 de       	rcall	.-978    	; 0x2140 <xputc>
    2512:	74 01       	movw	r14, r8
    2514:	f5 ce       	rjmp	.-534    	; 0x2300 <xvprintf+0x168>
    2516:	e9 8d       	ldd	r30, Y+25	; 0x19
    2518:	fa 8d       	ldd	r31, Y+26	; 0x1a
    251a:	80 81       	ld	r24, Z
    251c:	91 81       	ldd	r25, Z+1	; 0x01
    251e:	a2 81       	ldd	r26, Z+2	; 0x02
    2520:	b3 81       	ldd	r27, Z+3	; 0x03
    2522:	34 96       	adiw	r30, 0x04	; 4
    2524:	fa 8f       	std	Y+26, r31	; 0x1a
    2526:	e9 8f       	std	Y+25, r30	; 0x19
    2528:	68 94       	set
    252a:	44 24       	eor	r4, r4
    252c:	41 f8       	bld	r4, 1
    252e:	51 2c       	mov	r5, r1
    2530:	5c cf       	rjmp	.-328    	; 0x23ea <xvprintf+0x252>
    2532:	e2 fc       	sbrc	r14, 2
    2534:	f0 cf       	rjmp	.-32     	; 0x2516 <xvprintf+0x37e>
    2536:	68 94       	set
    2538:	44 24       	eor	r4, r4
    253a:	41 f8       	bld	r4, 1
    253c:	51 2c       	mov	r5, r1
    253e:	2b cf       	rjmp	.-426    	; 0x2396 <xvprintf+0x1fe>
    2540:	e9 8d       	ldd	r30, Y+25	; 0x19
    2542:	fa 8d       	ldd	r31, Y+26	; 0x1a
    2544:	80 81       	ld	r24, Z
    2546:	91 81       	ldd	r25, Z+1	; 0x01
    2548:	a2 81       	ldd	r26, Z+2	; 0x02
    254a:	b3 81       	ldd	r27, Z+3	; 0x03
    254c:	34 96       	adiw	r30, 0x04	; 4
    254e:	fa 8f       	std	Y+26, r31	; 0x1a
    2550:	e9 8f       	std	Y+25, r30	; 0x19
    2552:	68 94       	set
    2554:	44 24       	eor	r4, r4
    2556:	43 f8       	bld	r4, 3
    2558:	51 2c       	mov	r5, r1
    255a:	47 cf       	rjmp	.-370    	; 0x23ea <xvprintf+0x252>
    255c:	e2 fc       	sbrc	r14, 2
    255e:	f0 cf       	rjmp	.-32     	; 0x2540 <xvprintf+0x3a8>
    2560:	68 94       	set
    2562:	44 24       	eor	r4, r4
    2564:	43 f8       	bld	r4, 3
    2566:	51 2c       	mov	r5, r1
    2568:	26 cf       	rjmp	.-436    	; 0x23b6 <xvprintf+0x21e>
    256a:	6c 96       	adiw	r28, 0x1c	; 28
    256c:	0f b6       	in	r0, 0x3f	; 63
    256e:	f8 94       	cli
    2570:	de bf       	out	0x3e, r29	; 62
    2572:	0f be       	out	0x3f, r0	; 63
    2574:	cd bf       	out	0x3d, r28	; 61
    2576:	df 91       	pop	r29
    2578:	cf 91       	pop	r28
    257a:	1f 91       	pop	r17
    257c:	0f 91       	pop	r16
    257e:	ff 90       	pop	r15
    2580:	ef 90       	pop	r14
    2582:	df 90       	pop	r13
    2584:	cf 90       	pop	r12
    2586:	bf 90       	pop	r11
    2588:	af 90       	pop	r10
    258a:	9f 90       	pop	r9
    258c:	8f 90       	pop	r8
    258e:	7f 90       	pop	r7
    2590:	6f 90       	pop	r6
    2592:	5f 90       	pop	r5
    2594:	4f 90       	pop	r4
    2596:	3f 90       	pop	r3
    2598:	2f 90       	pop	r2
    259a:	08 95       	ret

0000259c <xprintf>:

void xprintf (			/* Put a formatted string to the default device */
	const char*	fmt,	/* Pointer to the format string */
	...					/* Optional arguments */
)
{
    259c:	cf 93       	push	r28
    259e:	df 93       	push	r29
    25a0:	cd b7       	in	r28, 0x3d	; 61
    25a2:	de b7       	in	r29, 0x3e	; 62
    25a4:	be 01       	movw	r22, r28
    25a6:	6b 5f       	subi	r22, 0xFB	; 251
    25a8:	7f 4f       	sbci	r23, 0xFF	; 255
    25aa:	fb 01       	movw	r30, r22
    25ac:	81 91       	ld	r24, Z+
    25ae:	91 91       	ld	r25, Z+
	va_list arp;


	va_start(arp, fmt);
	xvprintf(fmt, arp);
    25b0:	bf 01       	movw	r22, r30
	va_end(arp);
}
    25b2:	f2 dd       	rcall	.-1052   	; 0x2198 <xvprintf>
    25b4:	df 91       	pop	r29
    25b6:	cf 91       	pop	r28
    25b8:	08 95       	ret

000025ba <Tick_Timer_Process>:
extern const struct process *procinit[];

/****************************************************************************/
void Tick_Timer_Process(void)
{
	ecos_tick();
    25ba:	0c 94 5e 01 	jmp	0x2bc	; 0x2bc <ecos_tick>
    25be:	08 95       	ret

000025c0 <Second_Timer_Process>:
}
/****************************************************************************/
void Second_Timer_Process(void)
{
    25c0:	08 95       	ret

000025c2 <main>:
}
/****************************************************************************/
/****************************************************************************/
/****************************************************************************/
int main (void)
{
    25c2:	01 dd       	rcall	.-1534   	; 0x1fc6 <Cpu_Hardware_Init>
    25c4:	80 ea       	ldi	r24, 0xA0	; 160
    25c6:	92 e0       	ldi	r25, 0x02	; 2
    25c8:	9f 93       	push	r25
    25ca:	8f 93       	push	r24
    25cc:	e7 df       	rcall	.-50     	; 0x259c <xprintf>
    25ce:	0e 94 b0 03 	call	0x760	; 0x760 <process_init>
    25d2:	60 e0       	ldi	r22, 0x00	; 0
    25d4:	70 e0       	ldi	r23, 0x00	; 0
    25d6:	8f e1       	ldi	r24, 0x1F	; 31
    25d8:	91 e0       	ldi	r25, 0x01	; 1
    25da:	0e 94 4e 04 	call	0x89c	; 0x89c <process_start>
    25de:	89 ea       	ldi	r24, 0xA9	; 169
    25e0:	92 e0       	ldi	r25, 0x02	; 2
    25e2:	9f 93       	push	r25
    25e4:	8f 93       	push	r24
    25e6:	da df       	rcall	.-76     	; 0x259c <xprintf>
    25e8:	0f 90       	pop	r0
    25ea:	0f 90       	pop	r0
    25ec:	0f 90       	pop	r0
    25ee:	0f 90       	pop	r0
    25f0:	c4 e0       	ldi	r28, 0x04	; 4
    25f2:	58 dc       	rcall	.-1872   	; 0x1ea4 <Cpu_Measurement>
    25f4:	0e 94 c0 03 	call	0x780	; 0x780 <process_run>
    25f8:	c9 b9       	out	0x09, r28	; 9
    25fa:	fb cf       	rjmp	.-10     	; 0x25f2 <main+0x30>

000025fc <__divmodhi4>:
    25fc:	97 fb       	bst	r25, 7
    25fe:	07 2e       	mov	r0, r23
    2600:	16 f4       	brtc	.+4      	; 0x2606 <__divmodhi4+0xa>
    2602:	00 94       	com	r0
    2604:	06 d0       	rcall	.+12     	; 0x2612 <__divmodhi4_neg1>
    2606:	77 fd       	sbrc	r23, 7
    2608:	08 d0       	rcall	.+16     	; 0x261a <__divmodhi4_neg2>
    260a:	4c d0       	rcall	.+152    	; 0x26a4 <__udivmodhi4>
    260c:	07 fc       	sbrc	r0, 7
    260e:	05 d0       	rcall	.+10     	; 0x261a <__divmodhi4_neg2>
    2610:	3e f4       	brtc	.+14     	; 0x2620 <__divmodhi4_exit>

00002612 <__divmodhi4_neg1>:
    2612:	90 95       	com	r25
    2614:	81 95       	neg	r24
    2616:	9f 4f       	sbci	r25, 0xFF	; 255
    2618:	08 95       	ret

0000261a <__divmodhi4_neg2>:
    261a:	70 95       	com	r23
    261c:	61 95       	neg	r22
    261e:	7f 4f       	sbci	r23, 0xFF	; 255

00002620 <__divmodhi4_exit>:
    2620:	08 95       	ret

00002622 <__udivmodsi4>:
    2622:	a1 e2       	ldi	r26, 0x21	; 33
    2624:	1a 2e       	mov	r1, r26
    2626:	aa 1b       	sub	r26, r26
    2628:	bb 1b       	sub	r27, r27
    262a:	fd 01       	movw	r30, r26
    262c:	0d c0       	rjmp	.+26     	; 0x2648 <__udivmodsi4_ep>

0000262e <__udivmodsi4_loop>:
    262e:	aa 1f       	adc	r26, r26
    2630:	bb 1f       	adc	r27, r27
    2632:	ee 1f       	adc	r30, r30
    2634:	ff 1f       	adc	r31, r31
    2636:	a2 17       	cp	r26, r18
    2638:	b3 07       	cpc	r27, r19
    263a:	e4 07       	cpc	r30, r20
    263c:	f5 07       	cpc	r31, r21
    263e:	20 f0       	brcs	.+8      	; 0x2648 <__udivmodsi4_ep>
    2640:	a2 1b       	sub	r26, r18
    2642:	b3 0b       	sbc	r27, r19
    2644:	e4 0b       	sbc	r30, r20
    2646:	f5 0b       	sbc	r31, r21

00002648 <__udivmodsi4_ep>:
    2648:	66 1f       	adc	r22, r22
    264a:	77 1f       	adc	r23, r23
    264c:	88 1f       	adc	r24, r24
    264e:	99 1f       	adc	r25, r25
    2650:	1a 94       	dec	r1
    2652:	69 f7       	brne	.-38     	; 0x262e <__udivmodsi4_loop>
    2654:	60 95       	com	r22
    2656:	70 95       	com	r23
    2658:	80 95       	com	r24
    265a:	90 95       	com	r25
    265c:	9b 01       	movw	r18, r22
    265e:	ac 01       	movw	r20, r24
    2660:	bd 01       	movw	r22, r26
    2662:	cf 01       	movw	r24, r30
    2664:	08 95       	ret

00002666 <__tablejump2__>:
    2666:	ee 0f       	add	r30, r30
    2668:	ff 1f       	adc	r31, r31
    266a:	05 90       	lpm	r0, Z+
    266c:	f4 91       	lpm	r31, Z
    266e:	e0 2d       	mov	r30, r0
    2670:	09 94       	ijmp

00002672 <__umulhisi3>:
    2672:	a2 9f       	mul	r26, r18
    2674:	b0 01       	movw	r22, r0
    2676:	b3 9f       	mul	r27, r19
    2678:	c0 01       	movw	r24, r0
    267a:	a3 9f       	mul	r26, r19
    267c:	70 0d       	add	r23, r0
    267e:	81 1d       	adc	r24, r1
    2680:	11 24       	eor	r1, r1
    2682:	91 1d       	adc	r25, r1
    2684:	b2 9f       	mul	r27, r18
    2686:	70 0d       	add	r23, r0
    2688:	81 1d       	adc	r24, r1
    268a:	11 24       	eor	r1, r1
    268c:	91 1d       	adc	r25, r1
    268e:	08 95       	ret

00002690 <__muluhisi3>:
    2690:	f0 df       	rcall	.-32     	; 0x2672 <__umulhisi3>
    2692:	a5 9f       	mul	r26, r21
    2694:	90 0d       	add	r25, r0
    2696:	b4 9f       	mul	r27, r20
    2698:	90 0d       	add	r25, r0
    269a:	a4 9f       	mul	r26, r20
    269c:	80 0d       	add	r24, r0
    269e:	91 1d       	adc	r25, r1
    26a0:	11 24       	eor	r1, r1
    26a2:	08 95       	ret

000026a4 <__udivmodhi4>:
    26a4:	aa 1b       	sub	r26, r26
    26a6:	bb 1b       	sub	r27, r27
    26a8:	51 e1       	ldi	r21, 0x11	; 17
    26aa:	07 c0       	rjmp	.+14     	; 0x26ba <__udivmodhi4_ep>

000026ac <__udivmodhi4_loop>:
    26ac:	aa 1f       	adc	r26, r26
    26ae:	bb 1f       	adc	r27, r27
    26b0:	a6 17       	cp	r26, r22
    26b2:	b7 07       	cpc	r27, r23
    26b4:	10 f0       	brcs	.+4      	; 0x26ba <__udivmodhi4_ep>
    26b6:	a6 1b       	sub	r26, r22
    26b8:	b7 0b       	sbc	r27, r23

000026ba <__udivmodhi4_ep>:
    26ba:	88 1f       	adc	r24, r24
    26bc:	99 1f       	adc	r25, r25
    26be:	5a 95       	dec	r21
    26c0:	a9 f7       	brne	.-22     	; 0x26ac <__udivmodhi4_loop>
    26c2:	80 95       	com	r24
    26c4:	90 95       	com	r25
    26c6:	bc 01       	movw	r22, r24
    26c8:	cd 01       	movw	r24, r26
    26ca:	08 95       	ret

000026cc <fputc>:
    26cc:	0f 93       	push	r16
    26ce:	1f 93       	push	r17
    26d0:	cf 93       	push	r28
    26d2:	df 93       	push	r29
    26d4:	fb 01       	movw	r30, r22
    26d6:	23 81       	ldd	r18, Z+3	; 0x03
    26d8:	21 fd       	sbrc	r18, 1
    26da:	03 c0       	rjmp	.+6      	; 0x26e2 <fputc+0x16>
    26dc:	8f ef       	ldi	r24, 0xFF	; 255
    26de:	9f ef       	ldi	r25, 0xFF	; 255
    26e0:	2c c0       	rjmp	.+88     	; 0x273a <fputc+0x6e>
    26e2:	22 ff       	sbrs	r18, 2
    26e4:	16 c0       	rjmp	.+44     	; 0x2712 <fputc+0x46>
    26e6:	46 81       	ldd	r20, Z+6	; 0x06
    26e8:	57 81       	ldd	r21, Z+7	; 0x07
    26ea:	24 81       	ldd	r18, Z+4	; 0x04
    26ec:	35 81       	ldd	r19, Z+5	; 0x05
    26ee:	42 17       	cp	r20, r18
    26f0:	53 07       	cpc	r21, r19
    26f2:	44 f4       	brge	.+16     	; 0x2704 <fputc+0x38>
    26f4:	a0 81       	ld	r26, Z
    26f6:	b1 81       	ldd	r27, Z+1	; 0x01
    26f8:	9d 01       	movw	r18, r26
    26fa:	2f 5f       	subi	r18, 0xFF	; 255
    26fc:	3f 4f       	sbci	r19, 0xFF	; 255
    26fe:	31 83       	std	Z+1, r19	; 0x01
    2700:	20 83       	st	Z, r18
    2702:	8c 93       	st	X, r24
    2704:	26 81       	ldd	r18, Z+6	; 0x06
    2706:	37 81       	ldd	r19, Z+7	; 0x07
    2708:	2f 5f       	subi	r18, 0xFF	; 255
    270a:	3f 4f       	sbci	r19, 0xFF	; 255
    270c:	37 83       	std	Z+7, r19	; 0x07
    270e:	26 83       	std	Z+6, r18	; 0x06
    2710:	14 c0       	rjmp	.+40     	; 0x273a <fputc+0x6e>
    2712:	8b 01       	movw	r16, r22
    2714:	ec 01       	movw	r28, r24
    2716:	fb 01       	movw	r30, r22
    2718:	00 84       	ldd	r0, Z+8	; 0x08
    271a:	f1 85       	ldd	r31, Z+9	; 0x09
    271c:	e0 2d       	mov	r30, r0
    271e:	09 95       	icall
    2720:	89 2b       	or	r24, r25
    2722:	e1 f6       	brne	.-72     	; 0x26dc <fputc+0x10>
    2724:	d8 01       	movw	r26, r16
    2726:	16 96       	adiw	r26, 0x06	; 6
    2728:	8d 91       	ld	r24, X+
    272a:	9c 91       	ld	r25, X
    272c:	17 97       	sbiw	r26, 0x07	; 7
    272e:	01 96       	adiw	r24, 0x01	; 1
    2730:	17 96       	adiw	r26, 0x07	; 7
    2732:	9c 93       	st	X, r25
    2734:	8e 93       	st	-X, r24
    2736:	16 97       	sbiw	r26, 0x06	; 6
    2738:	ce 01       	movw	r24, r28
    273a:	df 91       	pop	r29
    273c:	cf 91       	pop	r28
    273e:	1f 91       	pop	r17
    2740:	0f 91       	pop	r16
    2742:	08 95       	ret

00002744 <sprintf>:
    2744:	ae e0       	ldi	r26, 0x0E	; 14
    2746:	b0 e0       	ldi	r27, 0x00	; 0
    2748:	e7 ea       	ldi	r30, 0xA7	; 167
    274a:	f3 e1       	ldi	r31, 0x13	; 19
    274c:	6e c2       	rjmp	.+1244   	; 0x2c2a <__prologue_saves__+0x1c>
    274e:	0d 89       	ldd	r16, Y+21	; 0x15
    2750:	1e 89       	ldd	r17, Y+22	; 0x16
    2752:	86 e0       	ldi	r24, 0x06	; 6
    2754:	8c 83       	std	Y+4, r24	; 0x04
    2756:	1a 83       	std	Y+2, r17	; 0x02
    2758:	09 83       	std	Y+1, r16	; 0x01
    275a:	8f ef       	ldi	r24, 0xFF	; 255
    275c:	9f e7       	ldi	r25, 0x7F	; 127
    275e:	9e 83       	std	Y+6, r25	; 0x06
    2760:	8d 83       	std	Y+5, r24	; 0x05
    2762:	ae 01       	movw	r20, r28
    2764:	47 5e       	subi	r20, 0xE7	; 231
    2766:	5f 4f       	sbci	r21, 0xFF	; 255
    2768:	6f 89       	ldd	r22, Y+23	; 0x17
    276a:	78 8d       	ldd	r23, Y+24	; 0x18
    276c:	ce 01       	movw	r24, r28
    276e:	01 96       	adiw	r24, 0x01	; 1
    2770:	08 d0       	rcall	.+16     	; 0x2782 <vfprintf>
    2772:	ef 81       	ldd	r30, Y+7	; 0x07
    2774:	f8 85       	ldd	r31, Y+8	; 0x08
    2776:	e0 0f       	add	r30, r16
    2778:	f1 1f       	adc	r31, r17
    277a:	10 82       	st	Z, r1
    277c:	2e 96       	adiw	r28, 0x0e	; 14
    277e:	e4 e0       	ldi	r30, 0x04	; 4
    2780:	70 c2       	rjmp	.+1248   	; 0x2c62 <__epilogue_restores__+0x1c>

00002782 <vfprintf>:
    2782:	ab e0       	ldi	r26, 0x0B	; 11
    2784:	b0 e0       	ldi	r27, 0x00	; 0
    2786:	e6 ec       	ldi	r30, 0xC6	; 198
    2788:	f3 e1       	ldi	r31, 0x13	; 19
    278a:	41 c2       	rjmp	.+1154   	; 0x2c0e <__prologue_saves__>
    278c:	6c 01       	movw	r12, r24
    278e:	7b 01       	movw	r14, r22
    2790:	8a 01       	movw	r16, r20
    2792:	fc 01       	movw	r30, r24
    2794:	17 82       	std	Z+7, r1	; 0x07
    2796:	16 82       	std	Z+6, r1	; 0x06
    2798:	83 81       	ldd	r24, Z+3	; 0x03
    279a:	81 ff       	sbrs	r24, 1
    279c:	bf c1       	rjmp	.+894    	; 0x2b1c <vfprintf+0x39a>
    279e:	ce 01       	movw	r24, r28
    27a0:	01 96       	adiw	r24, 0x01	; 1
    27a2:	3c 01       	movw	r6, r24
    27a4:	f6 01       	movw	r30, r12
    27a6:	93 81       	ldd	r25, Z+3	; 0x03
    27a8:	f7 01       	movw	r30, r14
    27aa:	93 fd       	sbrc	r25, 3
    27ac:	85 91       	lpm	r24, Z+
    27ae:	93 ff       	sbrs	r25, 3
    27b0:	81 91       	ld	r24, Z+
    27b2:	7f 01       	movw	r14, r30
    27b4:	88 23       	and	r24, r24
    27b6:	09 f4       	brne	.+2      	; 0x27ba <vfprintf+0x38>
    27b8:	ad c1       	rjmp	.+858    	; 0x2b14 <vfprintf+0x392>
    27ba:	85 32       	cpi	r24, 0x25	; 37
    27bc:	39 f4       	brne	.+14     	; 0x27cc <vfprintf+0x4a>
    27be:	93 fd       	sbrc	r25, 3
    27c0:	85 91       	lpm	r24, Z+
    27c2:	93 ff       	sbrs	r25, 3
    27c4:	81 91       	ld	r24, Z+
    27c6:	7f 01       	movw	r14, r30
    27c8:	85 32       	cpi	r24, 0x25	; 37
    27ca:	21 f4       	brne	.+8      	; 0x27d4 <vfprintf+0x52>
    27cc:	b6 01       	movw	r22, r12
    27ce:	90 e0       	ldi	r25, 0x00	; 0
    27d0:	7d df       	rcall	.-262    	; 0x26cc <fputc>
    27d2:	e8 cf       	rjmp	.-48     	; 0x27a4 <vfprintf+0x22>
    27d4:	91 2c       	mov	r9, r1
    27d6:	21 2c       	mov	r2, r1
    27d8:	31 2c       	mov	r3, r1
    27da:	ff e1       	ldi	r31, 0x1F	; 31
    27dc:	f3 15       	cp	r31, r3
    27de:	d8 f0       	brcs	.+54     	; 0x2816 <vfprintf+0x94>
    27e0:	8b 32       	cpi	r24, 0x2B	; 43
    27e2:	79 f0       	breq	.+30     	; 0x2802 <vfprintf+0x80>
    27e4:	38 f4       	brcc	.+14     	; 0x27f4 <vfprintf+0x72>
    27e6:	80 32       	cpi	r24, 0x20	; 32
    27e8:	79 f0       	breq	.+30     	; 0x2808 <vfprintf+0x86>
    27ea:	83 32       	cpi	r24, 0x23	; 35
    27ec:	a1 f4       	brne	.+40     	; 0x2816 <vfprintf+0x94>
    27ee:	23 2d       	mov	r18, r3
    27f0:	20 61       	ori	r18, 0x10	; 16
    27f2:	1d c0       	rjmp	.+58     	; 0x282e <vfprintf+0xac>
    27f4:	8d 32       	cpi	r24, 0x2D	; 45
    27f6:	61 f0       	breq	.+24     	; 0x2810 <vfprintf+0x8e>
    27f8:	80 33       	cpi	r24, 0x30	; 48
    27fa:	69 f4       	brne	.+26     	; 0x2816 <vfprintf+0x94>
    27fc:	23 2d       	mov	r18, r3
    27fe:	21 60       	ori	r18, 0x01	; 1
    2800:	16 c0       	rjmp	.+44     	; 0x282e <vfprintf+0xac>
    2802:	83 2d       	mov	r24, r3
    2804:	82 60       	ori	r24, 0x02	; 2
    2806:	38 2e       	mov	r3, r24
    2808:	e3 2d       	mov	r30, r3
    280a:	e4 60       	ori	r30, 0x04	; 4
    280c:	3e 2e       	mov	r3, r30
    280e:	2a c0       	rjmp	.+84     	; 0x2864 <vfprintf+0xe2>
    2810:	f3 2d       	mov	r31, r3
    2812:	f8 60       	ori	r31, 0x08	; 8
    2814:	1d c0       	rjmp	.+58     	; 0x2850 <vfprintf+0xce>
    2816:	37 fc       	sbrc	r3, 7
    2818:	2d c0       	rjmp	.+90     	; 0x2874 <vfprintf+0xf2>
    281a:	20 ed       	ldi	r18, 0xD0	; 208
    281c:	28 0f       	add	r18, r24
    281e:	2a 30       	cpi	r18, 0x0A	; 10
    2820:	40 f0       	brcs	.+16     	; 0x2832 <vfprintf+0xb0>
    2822:	8e 32       	cpi	r24, 0x2E	; 46
    2824:	b9 f4       	brne	.+46     	; 0x2854 <vfprintf+0xd2>
    2826:	36 fc       	sbrc	r3, 6
    2828:	75 c1       	rjmp	.+746    	; 0x2b14 <vfprintf+0x392>
    282a:	23 2d       	mov	r18, r3
    282c:	20 64       	ori	r18, 0x40	; 64
    282e:	32 2e       	mov	r3, r18
    2830:	19 c0       	rjmp	.+50     	; 0x2864 <vfprintf+0xe2>
    2832:	36 fe       	sbrs	r3, 6
    2834:	06 c0       	rjmp	.+12     	; 0x2842 <vfprintf+0xc0>
    2836:	8a e0       	ldi	r24, 0x0A	; 10
    2838:	98 9e       	mul	r9, r24
    283a:	20 0d       	add	r18, r0
    283c:	11 24       	eor	r1, r1
    283e:	92 2e       	mov	r9, r18
    2840:	11 c0       	rjmp	.+34     	; 0x2864 <vfprintf+0xe2>
    2842:	ea e0       	ldi	r30, 0x0A	; 10
    2844:	2e 9e       	mul	r2, r30
    2846:	20 0d       	add	r18, r0
    2848:	11 24       	eor	r1, r1
    284a:	22 2e       	mov	r2, r18
    284c:	f3 2d       	mov	r31, r3
    284e:	f0 62       	ori	r31, 0x20	; 32
    2850:	3f 2e       	mov	r3, r31
    2852:	08 c0       	rjmp	.+16     	; 0x2864 <vfprintf+0xe2>
    2854:	8c 36       	cpi	r24, 0x6C	; 108
    2856:	21 f4       	brne	.+8      	; 0x2860 <vfprintf+0xde>
    2858:	83 2d       	mov	r24, r3
    285a:	80 68       	ori	r24, 0x80	; 128
    285c:	38 2e       	mov	r3, r24
    285e:	02 c0       	rjmp	.+4      	; 0x2864 <vfprintf+0xe2>
    2860:	88 36       	cpi	r24, 0x68	; 104
    2862:	41 f4       	brne	.+16     	; 0x2874 <vfprintf+0xf2>
    2864:	f7 01       	movw	r30, r14
    2866:	93 fd       	sbrc	r25, 3
    2868:	85 91       	lpm	r24, Z+
    286a:	93 ff       	sbrs	r25, 3
    286c:	81 91       	ld	r24, Z+
    286e:	7f 01       	movw	r14, r30
    2870:	81 11       	cpse	r24, r1
    2872:	b3 cf       	rjmp	.-154    	; 0x27da <vfprintf+0x58>
    2874:	98 2f       	mov	r25, r24
    2876:	9f 7d       	andi	r25, 0xDF	; 223
    2878:	95 54       	subi	r25, 0x45	; 69
    287a:	93 30       	cpi	r25, 0x03	; 3
    287c:	28 f4       	brcc	.+10     	; 0x2888 <vfprintf+0x106>
    287e:	0c 5f       	subi	r16, 0xFC	; 252
    2880:	1f 4f       	sbci	r17, 0xFF	; 255
    2882:	9f e3       	ldi	r25, 0x3F	; 63
    2884:	99 83       	std	Y+1, r25	; 0x01
    2886:	0d c0       	rjmp	.+26     	; 0x28a2 <vfprintf+0x120>
    2888:	83 36       	cpi	r24, 0x63	; 99
    288a:	31 f0       	breq	.+12     	; 0x2898 <vfprintf+0x116>
    288c:	83 37       	cpi	r24, 0x73	; 115
    288e:	71 f0       	breq	.+28     	; 0x28ac <vfprintf+0x12a>
    2890:	83 35       	cpi	r24, 0x53	; 83
    2892:	09 f0       	breq	.+2      	; 0x2896 <vfprintf+0x114>
    2894:	55 c0       	rjmp	.+170    	; 0x2940 <vfprintf+0x1be>
    2896:	20 c0       	rjmp	.+64     	; 0x28d8 <vfprintf+0x156>
    2898:	f8 01       	movw	r30, r16
    289a:	80 81       	ld	r24, Z
    289c:	89 83       	std	Y+1, r24	; 0x01
    289e:	0e 5f       	subi	r16, 0xFE	; 254
    28a0:	1f 4f       	sbci	r17, 0xFF	; 255
    28a2:	88 24       	eor	r8, r8
    28a4:	83 94       	inc	r8
    28a6:	91 2c       	mov	r9, r1
    28a8:	53 01       	movw	r10, r6
    28aa:	12 c0       	rjmp	.+36     	; 0x28d0 <vfprintf+0x14e>
    28ac:	28 01       	movw	r4, r16
    28ae:	f2 e0       	ldi	r31, 0x02	; 2
    28b0:	4f 0e       	add	r4, r31
    28b2:	51 1c       	adc	r5, r1
    28b4:	f8 01       	movw	r30, r16
    28b6:	a0 80       	ld	r10, Z
    28b8:	b1 80       	ldd	r11, Z+1	; 0x01
    28ba:	36 fe       	sbrs	r3, 6
    28bc:	03 c0       	rjmp	.+6      	; 0x28c4 <vfprintf+0x142>
    28be:	69 2d       	mov	r22, r9
    28c0:	70 e0       	ldi	r23, 0x00	; 0
    28c2:	02 c0       	rjmp	.+4      	; 0x28c8 <vfprintf+0x146>
    28c4:	6f ef       	ldi	r22, 0xFF	; 255
    28c6:	7f ef       	ldi	r23, 0xFF	; 255
    28c8:	c5 01       	movw	r24, r10
    28ca:	38 d1       	rcall	.+624    	; 0x2b3c <strnlen>
    28cc:	4c 01       	movw	r8, r24
    28ce:	82 01       	movw	r16, r4
    28d0:	f3 2d       	mov	r31, r3
    28d2:	ff 77       	andi	r31, 0x7F	; 127
    28d4:	3f 2e       	mov	r3, r31
    28d6:	15 c0       	rjmp	.+42     	; 0x2902 <vfprintf+0x180>
    28d8:	28 01       	movw	r4, r16
    28da:	22 e0       	ldi	r18, 0x02	; 2
    28dc:	42 0e       	add	r4, r18
    28de:	51 1c       	adc	r5, r1
    28e0:	f8 01       	movw	r30, r16
    28e2:	a0 80       	ld	r10, Z
    28e4:	b1 80       	ldd	r11, Z+1	; 0x01
    28e6:	36 fe       	sbrs	r3, 6
    28e8:	03 c0       	rjmp	.+6      	; 0x28f0 <vfprintf+0x16e>
    28ea:	69 2d       	mov	r22, r9
    28ec:	70 e0       	ldi	r23, 0x00	; 0
    28ee:	02 c0       	rjmp	.+4      	; 0x28f4 <vfprintf+0x172>
    28f0:	6f ef       	ldi	r22, 0xFF	; 255
    28f2:	7f ef       	ldi	r23, 0xFF	; 255
    28f4:	c5 01       	movw	r24, r10
    28f6:	17 d1       	rcall	.+558    	; 0x2b26 <strnlen_P>
    28f8:	4c 01       	movw	r8, r24
    28fa:	f3 2d       	mov	r31, r3
    28fc:	f0 68       	ori	r31, 0x80	; 128
    28fe:	3f 2e       	mov	r3, r31
    2900:	82 01       	movw	r16, r4
    2902:	33 fc       	sbrc	r3, 3
    2904:	19 c0       	rjmp	.+50     	; 0x2938 <vfprintf+0x1b6>
    2906:	82 2d       	mov	r24, r2
    2908:	90 e0       	ldi	r25, 0x00	; 0
    290a:	88 16       	cp	r8, r24
    290c:	99 06       	cpc	r9, r25
    290e:	a0 f4       	brcc	.+40     	; 0x2938 <vfprintf+0x1b6>
    2910:	b6 01       	movw	r22, r12
    2912:	80 e2       	ldi	r24, 0x20	; 32
    2914:	90 e0       	ldi	r25, 0x00	; 0
    2916:	da de       	rcall	.-588    	; 0x26cc <fputc>
    2918:	2a 94       	dec	r2
    291a:	f5 cf       	rjmp	.-22     	; 0x2906 <vfprintf+0x184>
    291c:	f5 01       	movw	r30, r10
    291e:	37 fc       	sbrc	r3, 7
    2920:	85 91       	lpm	r24, Z+
    2922:	37 fe       	sbrs	r3, 7
    2924:	81 91       	ld	r24, Z+
    2926:	5f 01       	movw	r10, r30
    2928:	b6 01       	movw	r22, r12
    292a:	90 e0       	ldi	r25, 0x00	; 0
    292c:	cf de       	rcall	.-610    	; 0x26cc <fputc>
    292e:	21 10       	cpse	r2, r1
    2930:	2a 94       	dec	r2
    2932:	21 e0       	ldi	r18, 0x01	; 1
    2934:	82 1a       	sub	r8, r18
    2936:	91 08       	sbc	r9, r1
    2938:	81 14       	cp	r8, r1
    293a:	91 04       	cpc	r9, r1
    293c:	79 f7       	brne	.-34     	; 0x291c <vfprintf+0x19a>
    293e:	e1 c0       	rjmp	.+450    	; 0x2b02 <vfprintf+0x380>
    2940:	84 36       	cpi	r24, 0x64	; 100
    2942:	11 f0       	breq	.+4      	; 0x2948 <vfprintf+0x1c6>
    2944:	89 36       	cpi	r24, 0x69	; 105
    2946:	39 f5       	brne	.+78     	; 0x2996 <vfprintf+0x214>
    2948:	f8 01       	movw	r30, r16
    294a:	37 fe       	sbrs	r3, 7
    294c:	07 c0       	rjmp	.+14     	; 0x295c <vfprintf+0x1da>
    294e:	60 81       	ld	r22, Z
    2950:	71 81       	ldd	r23, Z+1	; 0x01
    2952:	82 81       	ldd	r24, Z+2	; 0x02
    2954:	93 81       	ldd	r25, Z+3	; 0x03
    2956:	0c 5f       	subi	r16, 0xFC	; 252
    2958:	1f 4f       	sbci	r17, 0xFF	; 255
    295a:	08 c0       	rjmp	.+16     	; 0x296c <vfprintf+0x1ea>
    295c:	60 81       	ld	r22, Z
    295e:	71 81       	ldd	r23, Z+1	; 0x01
    2960:	07 2e       	mov	r0, r23
    2962:	00 0c       	add	r0, r0
    2964:	88 0b       	sbc	r24, r24
    2966:	99 0b       	sbc	r25, r25
    2968:	0e 5f       	subi	r16, 0xFE	; 254
    296a:	1f 4f       	sbci	r17, 0xFF	; 255
    296c:	f3 2d       	mov	r31, r3
    296e:	ff 76       	andi	r31, 0x6F	; 111
    2970:	3f 2e       	mov	r3, r31
    2972:	97 ff       	sbrs	r25, 7
    2974:	09 c0       	rjmp	.+18     	; 0x2988 <vfprintf+0x206>
    2976:	90 95       	com	r25
    2978:	80 95       	com	r24
    297a:	70 95       	com	r23
    297c:	61 95       	neg	r22
    297e:	7f 4f       	sbci	r23, 0xFF	; 255
    2980:	8f 4f       	sbci	r24, 0xFF	; 255
    2982:	9f 4f       	sbci	r25, 0xFF	; 255
    2984:	f0 68       	ori	r31, 0x80	; 128
    2986:	3f 2e       	mov	r3, r31
    2988:	2a e0       	ldi	r18, 0x0A	; 10
    298a:	30 e0       	ldi	r19, 0x00	; 0
    298c:	a3 01       	movw	r20, r6
    298e:	e1 d0       	rcall	.+450    	; 0x2b52 <__ultoa_invert>
    2990:	88 2e       	mov	r8, r24
    2992:	86 18       	sub	r8, r6
    2994:	44 c0       	rjmp	.+136    	; 0x2a1e <vfprintf+0x29c>
    2996:	85 37       	cpi	r24, 0x75	; 117
    2998:	31 f4       	brne	.+12     	; 0x29a6 <vfprintf+0x224>
    299a:	23 2d       	mov	r18, r3
    299c:	2f 7e       	andi	r18, 0xEF	; 239
    299e:	b2 2e       	mov	r11, r18
    29a0:	2a e0       	ldi	r18, 0x0A	; 10
    29a2:	30 e0       	ldi	r19, 0x00	; 0
    29a4:	25 c0       	rjmp	.+74     	; 0x29f0 <vfprintf+0x26e>
    29a6:	93 2d       	mov	r25, r3
    29a8:	99 7f       	andi	r25, 0xF9	; 249
    29aa:	b9 2e       	mov	r11, r25
    29ac:	8f 36       	cpi	r24, 0x6F	; 111
    29ae:	c1 f0       	breq	.+48     	; 0x29e0 <vfprintf+0x25e>
    29b0:	18 f4       	brcc	.+6      	; 0x29b8 <vfprintf+0x236>
    29b2:	88 35       	cpi	r24, 0x58	; 88
    29b4:	79 f0       	breq	.+30     	; 0x29d4 <vfprintf+0x252>
    29b6:	ae c0       	rjmp	.+348    	; 0x2b14 <vfprintf+0x392>
    29b8:	80 37       	cpi	r24, 0x70	; 112
    29ba:	19 f0       	breq	.+6      	; 0x29c2 <vfprintf+0x240>
    29bc:	88 37       	cpi	r24, 0x78	; 120
    29be:	21 f0       	breq	.+8      	; 0x29c8 <vfprintf+0x246>
    29c0:	a9 c0       	rjmp	.+338    	; 0x2b14 <vfprintf+0x392>
    29c2:	e9 2f       	mov	r30, r25
    29c4:	e0 61       	ori	r30, 0x10	; 16
    29c6:	be 2e       	mov	r11, r30
    29c8:	b4 fe       	sbrs	r11, 4
    29ca:	0d c0       	rjmp	.+26     	; 0x29e6 <vfprintf+0x264>
    29cc:	fb 2d       	mov	r31, r11
    29ce:	f4 60       	ori	r31, 0x04	; 4
    29d0:	bf 2e       	mov	r11, r31
    29d2:	09 c0       	rjmp	.+18     	; 0x29e6 <vfprintf+0x264>
    29d4:	34 fe       	sbrs	r3, 4
    29d6:	0a c0       	rjmp	.+20     	; 0x29ec <vfprintf+0x26a>
    29d8:	29 2f       	mov	r18, r25
    29da:	26 60       	ori	r18, 0x06	; 6
    29dc:	b2 2e       	mov	r11, r18
    29de:	06 c0       	rjmp	.+12     	; 0x29ec <vfprintf+0x26a>
    29e0:	28 e0       	ldi	r18, 0x08	; 8
    29e2:	30 e0       	ldi	r19, 0x00	; 0
    29e4:	05 c0       	rjmp	.+10     	; 0x29f0 <vfprintf+0x26e>
    29e6:	20 e1       	ldi	r18, 0x10	; 16
    29e8:	30 e0       	ldi	r19, 0x00	; 0
    29ea:	02 c0       	rjmp	.+4      	; 0x29f0 <vfprintf+0x26e>
    29ec:	20 e1       	ldi	r18, 0x10	; 16
    29ee:	32 e0       	ldi	r19, 0x02	; 2
    29f0:	f8 01       	movw	r30, r16
    29f2:	b7 fe       	sbrs	r11, 7
    29f4:	07 c0       	rjmp	.+14     	; 0x2a04 <vfprintf+0x282>
    29f6:	60 81       	ld	r22, Z
    29f8:	71 81       	ldd	r23, Z+1	; 0x01
    29fa:	82 81       	ldd	r24, Z+2	; 0x02
    29fc:	93 81       	ldd	r25, Z+3	; 0x03
    29fe:	0c 5f       	subi	r16, 0xFC	; 252
    2a00:	1f 4f       	sbci	r17, 0xFF	; 255
    2a02:	06 c0       	rjmp	.+12     	; 0x2a10 <vfprintf+0x28e>
    2a04:	60 81       	ld	r22, Z
    2a06:	71 81       	ldd	r23, Z+1	; 0x01
    2a08:	80 e0       	ldi	r24, 0x00	; 0
    2a0a:	90 e0       	ldi	r25, 0x00	; 0
    2a0c:	0e 5f       	subi	r16, 0xFE	; 254
    2a0e:	1f 4f       	sbci	r17, 0xFF	; 255
    2a10:	a3 01       	movw	r20, r6
    2a12:	9f d0       	rcall	.+318    	; 0x2b52 <__ultoa_invert>
    2a14:	88 2e       	mov	r8, r24
    2a16:	86 18       	sub	r8, r6
    2a18:	fb 2d       	mov	r31, r11
    2a1a:	ff 77       	andi	r31, 0x7F	; 127
    2a1c:	3f 2e       	mov	r3, r31
    2a1e:	36 fe       	sbrs	r3, 6
    2a20:	0d c0       	rjmp	.+26     	; 0x2a3c <vfprintf+0x2ba>
    2a22:	23 2d       	mov	r18, r3
    2a24:	2e 7f       	andi	r18, 0xFE	; 254
    2a26:	a2 2e       	mov	r10, r18
    2a28:	89 14       	cp	r8, r9
    2a2a:	58 f4       	brcc	.+22     	; 0x2a42 <vfprintf+0x2c0>
    2a2c:	34 fe       	sbrs	r3, 4
    2a2e:	0b c0       	rjmp	.+22     	; 0x2a46 <vfprintf+0x2c4>
    2a30:	32 fc       	sbrc	r3, 2
    2a32:	09 c0       	rjmp	.+18     	; 0x2a46 <vfprintf+0x2c4>
    2a34:	83 2d       	mov	r24, r3
    2a36:	8e 7e       	andi	r24, 0xEE	; 238
    2a38:	a8 2e       	mov	r10, r24
    2a3a:	05 c0       	rjmp	.+10     	; 0x2a46 <vfprintf+0x2c4>
    2a3c:	b8 2c       	mov	r11, r8
    2a3e:	a3 2c       	mov	r10, r3
    2a40:	03 c0       	rjmp	.+6      	; 0x2a48 <vfprintf+0x2c6>
    2a42:	b8 2c       	mov	r11, r8
    2a44:	01 c0       	rjmp	.+2      	; 0x2a48 <vfprintf+0x2c6>
    2a46:	b9 2c       	mov	r11, r9
    2a48:	a4 fe       	sbrs	r10, 4
    2a4a:	0f c0       	rjmp	.+30     	; 0x2a6a <vfprintf+0x2e8>
    2a4c:	fe 01       	movw	r30, r28
    2a4e:	e8 0d       	add	r30, r8
    2a50:	f1 1d       	adc	r31, r1
    2a52:	80 81       	ld	r24, Z
    2a54:	80 33       	cpi	r24, 0x30	; 48
    2a56:	21 f4       	brne	.+8      	; 0x2a60 <vfprintf+0x2de>
    2a58:	9a 2d       	mov	r25, r10
    2a5a:	99 7e       	andi	r25, 0xE9	; 233
    2a5c:	a9 2e       	mov	r10, r25
    2a5e:	09 c0       	rjmp	.+18     	; 0x2a72 <vfprintf+0x2f0>
    2a60:	a2 fe       	sbrs	r10, 2
    2a62:	06 c0       	rjmp	.+12     	; 0x2a70 <vfprintf+0x2ee>
    2a64:	b3 94       	inc	r11
    2a66:	b3 94       	inc	r11
    2a68:	04 c0       	rjmp	.+8      	; 0x2a72 <vfprintf+0x2f0>
    2a6a:	8a 2d       	mov	r24, r10
    2a6c:	86 78       	andi	r24, 0x86	; 134
    2a6e:	09 f0       	breq	.+2      	; 0x2a72 <vfprintf+0x2f0>
    2a70:	b3 94       	inc	r11
    2a72:	a3 fc       	sbrc	r10, 3
    2a74:	10 c0       	rjmp	.+32     	; 0x2a96 <vfprintf+0x314>
    2a76:	a0 fe       	sbrs	r10, 0
    2a78:	06 c0       	rjmp	.+12     	; 0x2a86 <vfprintf+0x304>
    2a7a:	b2 14       	cp	r11, r2
    2a7c:	80 f4       	brcc	.+32     	; 0x2a9e <vfprintf+0x31c>
    2a7e:	28 0c       	add	r2, r8
    2a80:	92 2c       	mov	r9, r2
    2a82:	9b 18       	sub	r9, r11
    2a84:	0d c0       	rjmp	.+26     	; 0x2aa0 <vfprintf+0x31e>
    2a86:	b2 14       	cp	r11, r2
    2a88:	58 f4       	brcc	.+22     	; 0x2aa0 <vfprintf+0x31e>
    2a8a:	b6 01       	movw	r22, r12
    2a8c:	80 e2       	ldi	r24, 0x20	; 32
    2a8e:	90 e0       	ldi	r25, 0x00	; 0
    2a90:	1d de       	rcall	.-966    	; 0x26cc <fputc>
    2a92:	b3 94       	inc	r11
    2a94:	f8 cf       	rjmp	.-16     	; 0x2a86 <vfprintf+0x304>
    2a96:	b2 14       	cp	r11, r2
    2a98:	18 f4       	brcc	.+6      	; 0x2aa0 <vfprintf+0x31e>
    2a9a:	2b 18       	sub	r2, r11
    2a9c:	02 c0       	rjmp	.+4      	; 0x2aa2 <vfprintf+0x320>
    2a9e:	98 2c       	mov	r9, r8
    2aa0:	21 2c       	mov	r2, r1
    2aa2:	a4 fe       	sbrs	r10, 4
    2aa4:	0f c0       	rjmp	.+30     	; 0x2ac4 <vfprintf+0x342>
    2aa6:	b6 01       	movw	r22, r12
    2aa8:	80 e3       	ldi	r24, 0x30	; 48
    2aaa:	90 e0       	ldi	r25, 0x00	; 0
    2aac:	0f de       	rcall	.-994    	; 0x26cc <fputc>
    2aae:	a2 fe       	sbrs	r10, 2
    2ab0:	16 c0       	rjmp	.+44     	; 0x2ade <vfprintf+0x35c>
    2ab2:	a1 fc       	sbrc	r10, 1
    2ab4:	03 c0       	rjmp	.+6      	; 0x2abc <vfprintf+0x33a>
    2ab6:	88 e7       	ldi	r24, 0x78	; 120
    2ab8:	90 e0       	ldi	r25, 0x00	; 0
    2aba:	02 c0       	rjmp	.+4      	; 0x2ac0 <vfprintf+0x33e>
    2abc:	88 e5       	ldi	r24, 0x58	; 88
    2abe:	90 e0       	ldi	r25, 0x00	; 0
    2ac0:	b6 01       	movw	r22, r12
    2ac2:	0c c0       	rjmp	.+24     	; 0x2adc <vfprintf+0x35a>
    2ac4:	8a 2d       	mov	r24, r10
    2ac6:	86 78       	andi	r24, 0x86	; 134
    2ac8:	51 f0       	breq	.+20     	; 0x2ade <vfprintf+0x35c>
    2aca:	a1 fe       	sbrs	r10, 1
    2acc:	02 c0       	rjmp	.+4      	; 0x2ad2 <vfprintf+0x350>
    2ace:	8b e2       	ldi	r24, 0x2B	; 43
    2ad0:	01 c0       	rjmp	.+2      	; 0x2ad4 <vfprintf+0x352>
    2ad2:	80 e2       	ldi	r24, 0x20	; 32
    2ad4:	a7 fc       	sbrc	r10, 7
    2ad6:	8d e2       	ldi	r24, 0x2D	; 45
    2ad8:	b6 01       	movw	r22, r12
    2ada:	90 e0       	ldi	r25, 0x00	; 0
    2adc:	f7 dd       	rcall	.-1042   	; 0x26cc <fputc>
    2ade:	89 14       	cp	r8, r9
    2ae0:	30 f4       	brcc	.+12     	; 0x2aee <vfprintf+0x36c>
    2ae2:	b6 01       	movw	r22, r12
    2ae4:	80 e3       	ldi	r24, 0x30	; 48
    2ae6:	90 e0       	ldi	r25, 0x00	; 0
    2ae8:	f1 dd       	rcall	.-1054   	; 0x26cc <fputc>
    2aea:	9a 94       	dec	r9
    2aec:	f8 cf       	rjmp	.-16     	; 0x2ade <vfprintf+0x35c>
    2aee:	8a 94       	dec	r8
    2af0:	f3 01       	movw	r30, r6
    2af2:	e8 0d       	add	r30, r8
    2af4:	f1 1d       	adc	r31, r1
    2af6:	80 81       	ld	r24, Z
    2af8:	b6 01       	movw	r22, r12
    2afa:	90 e0       	ldi	r25, 0x00	; 0
    2afc:	e7 dd       	rcall	.-1074   	; 0x26cc <fputc>
    2afe:	81 10       	cpse	r8, r1
    2b00:	f6 cf       	rjmp	.-20     	; 0x2aee <vfprintf+0x36c>
    2b02:	22 20       	and	r2, r2
    2b04:	09 f4       	brne	.+2      	; 0x2b08 <vfprintf+0x386>
    2b06:	4e ce       	rjmp	.-868    	; 0x27a4 <vfprintf+0x22>
    2b08:	b6 01       	movw	r22, r12
    2b0a:	80 e2       	ldi	r24, 0x20	; 32
    2b0c:	90 e0       	ldi	r25, 0x00	; 0
    2b0e:	de dd       	rcall	.-1092   	; 0x26cc <fputc>
    2b10:	2a 94       	dec	r2
    2b12:	f7 cf       	rjmp	.-18     	; 0x2b02 <vfprintf+0x380>
    2b14:	f6 01       	movw	r30, r12
    2b16:	86 81       	ldd	r24, Z+6	; 0x06
    2b18:	97 81       	ldd	r25, Z+7	; 0x07
    2b1a:	02 c0       	rjmp	.+4      	; 0x2b20 <vfprintf+0x39e>
    2b1c:	8f ef       	ldi	r24, 0xFF	; 255
    2b1e:	9f ef       	ldi	r25, 0xFF	; 255
    2b20:	2b 96       	adiw	r28, 0x0b	; 11
    2b22:	e2 e1       	ldi	r30, 0x12	; 18
    2b24:	90 c0       	rjmp	.+288    	; 0x2c46 <__epilogue_restores__>

00002b26 <strnlen_P>:
    2b26:	fc 01       	movw	r30, r24
    2b28:	05 90       	lpm	r0, Z+
    2b2a:	61 50       	subi	r22, 0x01	; 1
    2b2c:	70 40       	sbci	r23, 0x00	; 0
    2b2e:	01 10       	cpse	r0, r1
    2b30:	d8 f7       	brcc	.-10     	; 0x2b28 <strnlen_P+0x2>
    2b32:	80 95       	com	r24
    2b34:	90 95       	com	r25
    2b36:	8e 0f       	add	r24, r30
    2b38:	9f 1f       	adc	r25, r31
    2b3a:	08 95       	ret

00002b3c <strnlen>:
    2b3c:	fc 01       	movw	r30, r24
    2b3e:	61 50       	subi	r22, 0x01	; 1
    2b40:	70 40       	sbci	r23, 0x00	; 0
    2b42:	01 90       	ld	r0, Z+
    2b44:	01 10       	cpse	r0, r1
    2b46:	d8 f7       	brcc	.-10     	; 0x2b3e <strnlen+0x2>
    2b48:	80 95       	com	r24
    2b4a:	90 95       	com	r25
    2b4c:	8e 0f       	add	r24, r30
    2b4e:	9f 1f       	adc	r25, r31
    2b50:	08 95       	ret

00002b52 <__ultoa_invert>:
    2b52:	fa 01       	movw	r30, r20
    2b54:	aa 27       	eor	r26, r26
    2b56:	28 30       	cpi	r18, 0x08	; 8
    2b58:	51 f1       	breq	.+84     	; 0x2bae <__ultoa_invert+0x5c>
    2b5a:	20 31       	cpi	r18, 0x10	; 16
    2b5c:	81 f1       	breq	.+96     	; 0x2bbe <__ultoa_invert+0x6c>
    2b5e:	e8 94       	clt
    2b60:	6f 93       	push	r22
    2b62:	6e 7f       	andi	r22, 0xFE	; 254
    2b64:	6e 5f       	subi	r22, 0xFE	; 254
    2b66:	7f 4f       	sbci	r23, 0xFF	; 255
    2b68:	8f 4f       	sbci	r24, 0xFF	; 255
    2b6a:	9f 4f       	sbci	r25, 0xFF	; 255
    2b6c:	af 4f       	sbci	r26, 0xFF	; 255
    2b6e:	b1 e0       	ldi	r27, 0x01	; 1
    2b70:	3e d0       	rcall	.+124    	; 0x2bee <__ultoa_invert+0x9c>
    2b72:	b4 e0       	ldi	r27, 0x04	; 4
    2b74:	3c d0       	rcall	.+120    	; 0x2bee <__ultoa_invert+0x9c>
    2b76:	67 0f       	add	r22, r23
    2b78:	78 1f       	adc	r23, r24
    2b7a:	89 1f       	adc	r24, r25
    2b7c:	9a 1f       	adc	r25, r26
    2b7e:	a1 1d       	adc	r26, r1
    2b80:	68 0f       	add	r22, r24
    2b82:	79 1f       	adc	r23, r25
    2b84:	8a 1f       	adc	r24, r26
    2b86:	91 1d       	adc	r25, r1
    2b88:	a1 1d       	adc	r26, r1
    2b8a:	6a 0f       	add	r22, r26
    2b8c:	71 1d       	adc	r23, r1
    2b8e:	81 1d       	adc	r24, r1
    2b90:	91 1d       	adc	r25, r1
    2b92:	a1 1d       	adc	r26, r1
    2b94:	20 d0       	rcall	.+64     	; 0x2bd6 <__ultoa_invert+0x84>
    2b96:	09 f4       	brne	.+2      	; 0x2b9a <__ultoa_invert+0x48>
    2b98:	68 94       	set
    2b9a:	3f 91       	pop	r19
    2b9c:	2a e0       	ldi	r18, 0x0A	; 10
    2b9e:	26 9f       	mul	r18, r22
    2ba0:	11 24       	eor	r1, r1
    2ba2:	30 19       	sub	r19, r0
    2ba4:	30 5d       	subi	r19, 0xD0	; 208
    2ba6:	31 93       	st	Z+, r19
    2ba8:	de f6       	brtc	.-74     	; 0x2b60 <__ultoa_invert+0xe>
    2baa:	cf 01       	movw	r24, r30
    2bac:	08 95       	ret
    2bae:	46 2f       	mov	r20, r22
    2bb0:	47 70       	andi	r20, 0x07	; 7
    2bb2:	40 5d       	subi	r20, 0xD0	; 208
    2bb4:	41 93       	st	Z+, r20
    2bb6:	b3 e0       	ldi	r27, 0x03	; 3
    2bb8:	0f d0       	rcall	.+30     	; 0x2bd8 <__ultoa_invert+0x86>
    2bba:	c9 f7       	brne	.-14     	; 0x2bae <__ultoa_invert+0x5c>
    2bbc:	f6 cf       	rjmp	.-20     	; 0x2baa <__ultoa_invert+0x58>
    2bbe:	46 2f       	mov	r20, r22
    2bc0:	4f 70       	andi	r20, 0x0F	; 15
    2bc2:	40 5d       	subi	r20, 0xD0	; 208
    2bc4:	4a 33       	cpi	r20, 0x3A	; 58
    2bc6:	18 f0       	brcs	.+6      	; 0x2bce <__ultoa_invert+0x7c>
    2bc8:	49 5d       	subi	r20, 0xD9	; 217
    2bca:	31 fd       	sbrc	r19, 1
    2bcc:	40 52       	subi	r20, 0x20	; 32
    2bce:	41 93       	st	Z+, r20
    2bd0:	02 d0       	rcall	.+4      	; 0x2bd6 <__ultoa_invert+0x84>
    2bd2:	a9 f7       	brne	.-22     	; 0x2bbe <__ultoa_invert+0x6c>
    2bd4:	ea cf       	rjmp	.-44     	; 0x2baa <__ultoa_invert+0x58>
    2bd6:	b4 e0       	ldi	r27, 0x04	; 4
    2bd8:	a6 95       	lsr	r26
    2bda:	97 95       	ror	r25
    2bdc:	87 95       	ror	r24
    2bde:	77 95       	ror	r23
    2be0:	67 95       	ror	r22
    2be2:	ba 95       	dec	r27
    2be4:	c9 f7       	brne	.-14     	; 0x2bd8 <__ultoa_invert+0x86>
    2be6:	00 97       	sbiw	r24, 0x00	; 0
    2be8:	61 05       	cpc	r22, r1
    2bea:	71 05       	cpc	r23, r1
    2bec:	08 95       	ret
    2bee:	9b 01       	movw	r18, r22
    2bf0:	ac 01       	movw	r20, r24
    2bf2:	0a 2e       	mov	r0, r26
    2bf4:	06 94       	lsr	r0
    2bf6:	57 95       	ror	r21
    2bf8:	47 95       	ror	r20
    2bfa:	37 95       	ror	r19
    2bfc:	27 95       	ror	r18
    2bfe:	ba 95       	dec	r27
    2c00:	c9 f7       	brne	.-14     	; 0x2bf4 <__ultoa_invert+0xa2>
    2c02:	62 0f       	add	r22, r18
    2c04:	73 1f       	adc	r23, r19
    2c06:	84 1f       	adc	r24, r20
    2c08:	95 1f       	adc	r25, r21
    2c0a:	a0 1d       	adc	r26, r0
    2c0c:	08 95       	ret

00002c0e <__prologue_saves__>:
    2c0e:	2f 92       	push	r2
    2c10:	3f 92       	push	r3
    2c12:	4f 92       	push	r4
    2c14:	5f 92       	push	r5
    2c16:	6f 92       	push	r6
    2c18:	7f 92       	push	r7
    2c1a:	8f 92       	push	r8
    2c1c:	9f 92       	push	r9
    2c1e:	af 92       	push	r10
    2c20:	bf 92       	push	r11
    2c22:	cf 92       	push	r12
    2c24:	df 92       	push	r13
    2c26:	ef 92       	push	r14
    2c28:	ff 92       	push	r15
    2c2a:	0f 93       	push	r16
    2c2c:	1f 93       	push	r17
    2c2e:	cf 93       	push	r28
    2c30:	df 93       	push	r29
    2c32:	cd b7       	in	r28, 0x3d	; 61
    2c34:	de b7       	in	r29, 0x3e	; 62
    2c36:	ca 1b       	sub	r28, r26
    2c38:	db 0b       	sbc	r29, r27
    2c3a:	0f b6       	in	r0, 0x3f	; 63
    2c3c:	f8 94       	cli
    2c3e:	de bf       	out	0x3e, r29	; 62
    2c40:	0f be       	out	0x3f, r0	; 63
    2c42:	cd bf       	out	0x3d, r28	; 61
    2c44:	09 94       	ijmp

00002c46 <__epilogue_restores__>:
    2c46:	2a 88       	ldd	r2, Y+18	; 0x12
    2c48:	39 88       	ldd	r3, Y+17	; 0x11
    2c4a:	48 88       	ldd	r4, Y+16	; 0x10
    2c4c:	5f 84       	ldd	r5, Y+15	; 0x0f
    2c4e:	6e 84       	ldd	r6, Y+14	; 0x0e
    2c50:	7d 84       	ldd	r7, Y+13	; 0x0d
    2c52:	8c 84       	ldd	r8, Y+12	; 0x0c
    2c54:	9b 84       	ldd	r9, Y+11	; 0x0b
    2c56:	aa 84       	ldd	r10, Y+10	; 0x0a
    2c58:	b9 84       	ldd	r11, Y+9	; 0x09
    2c5a:	c8 84       	ldd	r12, Y+8	; 0x08
    2c5c:	df 80       	ldd	r13, Y+7	; 0x07
    2c5e:	ee 80       	ldd	r14, Y+6	; 0x06
    2c60:	fd 80       	ldd	r15, Y+5	; 0x05
    2c62:	0c 81       	ldd	r16, Y+4	; 0x04
    2c64:	1b 81       	ldd	r17, Y+3	; 0x03
    2c66:	aa 81       	ldd	r26, Y+2	; 0x02
    2c68:	b9 81       	ldd	r27, Y+1	; 0x01
    2c6a:	ce 0f       	add	r28, r30
    2c6c:	d1 1d       	adc	r29, r1
    2c6e:	0f b6       	in	r0, 0x3f	; 63
    2c70:	f8 94       	cli
    2c72:	de bf       	out	0x3e, r29	; 62
    2c74:	0f be       	out	0x3f, r0	; 63
    2c76:	cd bf       	out	0x3d, r28	; 61
    2c78:	ed 01       	movw	r28, r26
    2c7a:	08 95       	ret

00002c7c <_exit>:
    2c7c:	f8 94       	cli

00002c7e <__stop_program>:
    2c7e:	ff cf       	rjmp	.-2      	; 0x2c7e <__stop_program>
